(dp0
VServer
p1
Vcmsweb.cern.ch
p2
sVPort
p3
V
p4
sVRequestName
p5
V250125_140314:gkaratha_crab_20250125_150307
p6
sVvoRole
p7
VNULL
p8
sVvoGroup
p9
g4
sVinstance
p10
Vprod
p11
sVOriginalConfig
p12
ccopy_reg
_reconstructor
p13
(cWMCore.Configuration
Configuration
p14
c__builtin__
object
p15
Ntp16
Rp17
(dp18
V_internal_sections
p19
(lp20
VGeneral
p21
aVJobType
p22
aVData
p23
aVSite
p24
asg21
g13
(cWMCore.Configuration
ConfigSection
p25
g15
Ntp26
Rp27
(dp28
V_internal_documentation
p29
g4
sV_internal_name
p30
g21
sV_internal_settings
p31
c__builtin__
set
p32
((lp33
VtransferOutputs
p34
aVworkArea
p35
atp36
Rp37
sV_internal_docstrings
p38
(dp39
sV_internal_children
p40
g32
((lp41
tp42
Rp43
sV_internal_parent_ref
p44
NsV_internal_skipChecks
p45
I00
sg34
I01
sg35
Vcrab_projects/ChargedJets_vsPF_v2_25_01_25
p46
sbsg22
g13
(g25
g15
Ntp47
Rp48
(dp49
g29
g4
sg30
g22
sg31
g32
((lp50
VpluginName
p51
aVpsetName
p52
aVmaxMemoryMB
p53
aVallowUndistributedCMSSW
p54
atp55
Rp56
sg38
(dp57
sg40
g32
((lp58
tp59
Rp60
sg44
Nsg45
I00
sg51
VAnalysis
p61
sg52
VrunGenBanalysis.py
p62
sg54
I01
sg53
I3500
sbsg23
g13
(g25
g15
Ntp63
Rp64
(dp65
g29
g4
sg30
g23
sg31
g32
((lp66
VuserInputFiles
p67
aVsplitting
p68
aVunitsPerJob
p69
aVpublication
p70
aVoutLFNDirBase
p71
aVoutputDatasetTag
p72
aVinputDBS
p73
atp74
Rp75
sg38
(dp76
sg40
g32
((lp77
tp78
Rp79
sg44
Nsg45
I00
sg68
VFileBased
p80
sg69
I10
sg73
Vglobal
p81
sg70
I00
sg72
VChargedJets_vsPF_v2_25_01_25
p82
sg71
V/store/group/cmst3/user/gkaratha
p83
sg67
(lp84
V/store/cmst3/group/softJets/gkaratha/chain_m70_dm20_cfgRun24_133X_Run2024_test_10172024/Mini/chain_m70_dm20_0_step5_mini.root
p85
aV/store/cmst3/group/softJets/gkaratha/chain_m70_dm20_cfgRun24_133X_Run2024_test_10172024/Mini/chain_m70_dm20_100_step5_mini.root
p86
aV/store/cmst3/group/softJets/gkaratha/chain_m70_dm20_cfgRun24_133X_Run2024_test_10172024/Mini/chain_m70_dm20_101_step5_mini.root
p87
aV/store/cmst3/group/softJets/gkaratha/chain_m70_dm20_cfgRun24_133X_Run2024_test_10172024/Mini/chain_m70_dm20_102_step5_mini.root
p88
aV/store/cmst3/group/softJets/gkaratha/chain_m70_dm20_cfgRun24_133X_Run2024_test_10172024/Mini/chain_m70_dm20_103_step5_mini.root
p89
aV/store/cmst3/group/softJets/gkaratha/chain_m70_dm20_cfgRun24_133X_Run2024_test_10172024/Mini/chain_m70_dm20_104_step5_mini.root
p90
aV/store/cmst3/group/softJets/gkaratha/chain_m70_dm20_cfgRun24_133X_Run2024_test_10172024/Mini/chain_m70_dm20_105_step5_mini.root
p91
aV/store/cmst3/group/softJets/gkaratha/chain_m70_dm20_cfgRun24_133X_Run2024_test_10172024/Mini/chain_m70_dm20_106_step5_mini.root
p92
aV/store/cmst3/group/softJets/gkaratha/chain_m70_dm20_cfgRun24_133X_Run2024_test_10172024/Mini/chain_m70_dm20_107_step5_mini.root
p93
aV/store/cmst3/group/softJets/gkaratha/chain_m70_dm20_cfgRun24_133X_Run2024_test_10172024/Mini/chain_m70_dm20_108_step5_mini.root
p94
aV/store/cmst3/group/softJets/gkaratha/chain_m70_dm20_cfgRun24_133X_Run2024_test_10172024/Mini/chain_m70_dm20_109_step5_mini.root
p95
aV/store/cmst3/group/softJets/gkaratha/chain_m70_dm20_cfgRun24_133X_Run2024_test_10172024/Mini/chain_m70_dm20_10_step5_mini.root
p96
aV/store/cmst3/group/softJets/gkaratha/chain_m70_dm20_cfgRun24_133X_Run2024_test_10172024/Mini/chain_m70_dm20_110_step5_mini.root
p97
aV/store/cmst3/group/softJets/gkaratha/chain_m70_dm20_cfgRun24_133X_Run2024_test_10172024/Mini/chain_m70_dm20_111_step5_mini.root
p98
aV/store/cmst3/group/softJets/gkaratha/chain_m70_dm20_cfgRun24_133X_Run2024_test_10172024/Mini/chain_m70_dm20_112_step5_mini.root
p99
aV/store/cmst3/group/softJets/gkaratha/chain_m70_dm20_cfgRun24_133X_Run2024_test_10172024/Mini/chain_m70_dm20_113_step5_mini.root
p100
aV/store/cmst3/group/softJets/gkaratha/chain_m70_dm20_cfgRun24_133X_Run2024_test_10172024/Mini/chain_m70_dm20_114_step5_mini.root
p101
aV/store/cmst3/group/softJets/gkaratha/chain_m70_dm20_cfgRun24_133X_Run2024_test_10172024/Mini/chain_m70_dm20_115_step5_mini.root
p102
aV/store/cmst3/group/softJets/gkaratha/chain_m70_dm20_cfgRun24_133X_Run2024_test_10172024/Mini/chain_m70_dm20_116_step5_mini.root
p103
aV/store/cmst3/group/softJets/gkaratha/chain_m70_dm20_cfgRun24_133X_Run2024_test_10172024/Mini/chain_m70_dm20_117_step5_mini.root
p104
aV/store/cmst3/group/softJets/gkaratha/chain_m70_dm20_cfgRun24_133X_Run2024_test_10172024/Mini/chain_m70_dm20_118_step5_mini.root
p105
aV/store/cmst3/group/softJets/gkaratha/chain_m70_dm20_cfgRun24_133X_Run2024_test_10172024/Mini/chain_m70_dm20_119_step5_mini.root
p106
aV/store/cmst3/group/softJets/gkaratha/chain_m70_dm20_cfgRun24_133X_Run2024_test_10172024/Mini/chain_m70_dm20_11_step5_mini.root
p107
aV/store/cmst3/group/softJets/gkaratha/chain_m70_dm20_cfgRun24_133X_Run2024_test_10172024/Mini/chain_m70_dm20_120_step5_mini.root
p108
aV/store/cmst3/group/softJets/gkaratha/chain_m70_dm20_cfgRun24_133X_Run2024_test_10172024/Mini/chain_m70_dm20_121_step5_mini.root
p109
aV/store/cmst3/group/softJets/gkaratha/chain_m70_dm20_cfgRun24_133X_Run2024_test_10172024/Mini/chain_m70_dm20_122_step5_mini.root
p110
aV/store/cmst3/group/softJets/gkaratha/chain_m70_dm20_cfgRun24_133X_Run2024_test_10172024/Mini/chain_m70_dm20_123_step5_mini.root
p111
aV/store/cmst3/group/softJets/gkaratha/chain_m70_dm20_cfgRun24_133X_Run2024_test_10172024/Mini/chain_m70_dm20_124_step5_mini.root
p112
aV/store/cmst3/group/softJets/gkaratha/chain_m70_dm20_cfgRun24_133X_Run2024_test_10172024/Mini/chain_m70_dm20_125_step5_mini.root
p113
aV/store/cmst3/group/softJets/gkaratha/chain_m70_dm20_cfgRun24_133X_Run2024_test_10172024/Mini/chain_m70_dm20_126_step5_mini.root
p114
aV/store/cmst3/group/softJets/gkaratha/chain_m70_dm20_cfgRun24_133X_Run2024_test_10172024/Mini/chain_m70_dm20_127_step5_mini.root
p115
aV/store/cmst3/group/softJets/gkaratha/chain_m70_dm20_cfgRun24_133X_Run2024_test_10172024/Mini/chain_m70_dm20_128_step5_mini.root
p116
aV/store/cmst3/group/softJets/gkaratha/chain_m70_dm20_cfgRun24_133X_Run2024_test_10172024/Mini/chain_m70_dm20_129_step5_mini.root
p117
aV/store/cmst3/group/softJets/gkaratha/chain_m70_dm20_cfgRun24_133X_Run2024_test_10172024/Mini/chain_m70_dm20_12_step5_mini.root
p118
aV/store/cmst3/group/softJets/gkaratha/chain_m70_dm20_cfgRun24_133X_Run2024_test_10172024/Mini/chain_m70_dm20_130_step5_mini.root
p119
aV/store/cmst3/group/softJets/gkaratha/chain_m70_dm20_cfgRun24_133X_Run2024_test_10172024/Mini/chain_m70_dm20_131_step5_mini.root
p120
aV/store/cmst3/group/softJets/gkaratha/chain_m70_dm20_cfgRun24_133X_Run2024_test_10172024/Mini/chain_m70_dm20_132_step5_mini.root
p121
aV/store/cmst3/group/softJets/gkaratha/chain_m70_dm20_cfgRun24_133X_Run2024_test_10172024/Mini/chain_m70_dm20_133_step5_mini.root
p122
aV/store/cmst3/group/softJets/gkaratha/chain_m70_dm20_cfgRun24_133X_Run2024_test_10172024/Mini/chain_m70_dm20_134_step5_mini.root
p123
aV/store/cmst3/group/softJets/gkaratha/chain_m70_dm20_cfgRun24_133X_Run2024_test_10172024/Mini/chain_m70_dm20_135_step5_mini.root
p124
aV/store/cmst3/group/softJets/gkaratha/chain_m70_dm20_cfgRun24_133X_Run2024_test_10172024/Mini/chain_m70_dm20_136_step5_mini.root
p125
aV/store/cmst3/group/softJets/gkaratha/chain_m70_dm20_cfgRun24_133X_Run2024_test_10172024/Mini/chain_m70_dm20_137_step5_mini.root
p126
aV/store/cmst3/group/softJets/gkaratha/chain_m70_dm20_cfgRun24_133X_Run2024_test_10172024/Mini/chain_m70_dm20_138_step5_mini.root
p127
aV/store/cmst3/group/softJets/gkaratha/chain_m70_dm20_cfgRun24_133X_Run2024_test_10172024/Mini/chain_m70_dm20_139_step5_mini.root
p128
aV/store/cmst3/group/softJets/gkaratha/chain_m70_dm20_cfgRun24_133X_Run2024_test_10172024/Mini/chain_m70_dm20_13_step5_mini.root
p129
aV/store/cmst3/group/softJets/gkaratha/chain_m70_dm20_cfgRun24_133X_Run2024_test_10172024/Mini/chain_m70_dm20_140_step5_mini.root
p130
aV/store/cmst3/group/softJets/gkaratha/chain_m70_dm20_cfgRun24_133X_Run2024_test_10172024/Mini/chain_m70_dm20_141_step5_mini.root
p131
aV/store/cmst3/group/softJets/gkaratha/chain_m70_dm20_cfgRun24_133X_Run2024_test_10172024/Mini/chain_m70_dm20_142_step5_mini.root
p132
aV/store/cmst3/group/softJets/gkaratha/chain_m70_dm20_cfgRun24_133X_Run2024_test_10172024/Mini/chain_m70_dm20_143_step5_mini.root
p133
aV/store/cmst3/group/softJets/gkaratha/chain_m70_dm20_cfgRun24_133X_Run2024_test_10172024/Mini/chain_m70_dm20_144_step5_mini.root
p134
aV/store/cmst3/group/softJets/gkaratha/chain_m70_dm20_cfgRun24_133X_Run2024_test_10172024/Mini/chain_m70_dm20_145_step5_mini.root
p135
aV/store/cmst3/group/softJets/gkaratha/chain_m70_dm20_cfgRun24_133X_Run2024_test_10172024/Mini/chain_m70_dm20_146_step5_mini.root
p136
aV/store/cmst3/group/softJets/gkaratha/chain_m70_dm20_cfgRun24_133X_Run2024_test_10172024/Mini/chain_m70_dm20_147_step5_mini.root
p137
aV/store/cmst3/group/softJets/gkaratha/chain_m70_dm20_cfgRun24_133X_Run2024_test_10172024/Mini/chain_m70_dm20_148_step5_mini.root
p138
aV/store/cmst3/group/softJets/gkaratha/chain_m70_dm20_cfgRun24_133X_Run2024_test_10172024/Mini/chain_m70_dm20_149_step5_mini.root
p139
aV/store/cmst3/group/softJets/gkaratha/chain_m70_dm20_cfgRun24_133X_Run2024_test_10172024/Mini/chain_m70_dm20_14_step5_mini.root
p140
aV/store/cmst3/group/softJets/gkaratha/chain_m70_dm20_cfgRun24_133X_Run2024_test_10172024/Mini/chain_m70_dm20_150_step5_mini.root
p141
aV/store/cmst3/group/softJets/gkaratha/chain_m70_dm20_cfgRun24_133X_Run2024_test_10172024/Mini/chain_m70_dm20_151_step5_mini.root
p142
aV/store/cmst3/group/softJets/gkaratha/chain_m70_dm20_cfgRun24_133X_Run2024_test_10172024/Mini/chain_m70_dm20_152_step5_mini.root
p143
aV/store/cmst3/group/softJets/gkaratha/chain_m70_dm20_cfgRun24_133X_Run2024_test_10172024/Mini/chain_m70_dm20_153_step5_mini.root
p144
aV/store/cmst3/group/softJets/gkaratha/chain_m70_dm20_cfgRun24_133X_Run2024_test_10172024/Mini/chain_m70_dm20_154_step5_mini.root
p145
aV/store/cmst3/group/softJets/gkaratha/chain_m70_dm20_cfgRun24_133X_Run2024_test_10172024/Mini/chain_m70_dm20_155_step5_mini.root
p146
aV/store/cmst3/group/softJets/gkaratha/chain_m70_dm20_cfgRun24_133X_Run2024_test_10172024/Mini/chain_m70_dm20_156_step5_mini.root
p147
aV/store/cmst3/group/softJets/gkaratha/chain_m70_dm20_cfgRun24_133X_Run2024_test_10172024/Mini/chain_m70_dm20_157_step5_mini.root
p148
aV/store/cmst3/group/softJets/gkaratha/chain_m70_dm20_cfgRun24_133X_Run2024_test_10172024/Mini/chain_m70_dm20_158_step5_mini.root
p149
aV/store/cmst3/group/softJets/gkaratha/chain_m70_dm20_cfgRun24_133X_Run2024_test_10172024/Mini/chain_m70_dm20_159_step5_mini.root
p150
aV/store/cmst3/group/softJets/gkaratha/chain_m70_dm20_cfgRun24_133X_Run2024_test_10172024/Mini/chain_m70_dm20_15_step5_mini.root
p151
aV/store/cmst3/group/softJets/gkaratha/chain_m70_dm20_cfgRun24_133X_Run2024_test_10172024/Mini/chain_m70_dm20_160_step5_mini.root
p152
aV/store/cmst3/group/softJets/gkaratha/chain_m70_dm20_cfgRun24_133X_Run2024_test_10172024/Mini/chain_m70_dm20_161_step5_mini.root
p153
aV/store/cmst3/group/softJets/gkaratha/chain_m70_dm20_cfgRun24_133X_Run2024_test_10172024/Mini/chain_m70_dm20_162_step5_mini.root
p154
aV/store/cmst3/group/softJets/gkaratha/chain_m70_dm20_cfgRun24_133X_Run2024_test_10172024/Mini/chain_m70_dm20_163_step5_mini.root
p155
aV/store/cmst3/group/softJets/gkaratha/chain_m70_dm20_cfgRun24_133X_Run2024_test_10172024/Mini/chain_m70_dm20_164_step5_mini.root
p156
aV/store/cmst3/group/softJets/gkaratha/chain_m70_dm20_cfgRun24_133X_Run2024_test_10172024/Mini/chain_m70_dm20_165_step5_mini.root
p157
aV/store/cmst3/group/softJets/gkaratha/chain_m70_dm20_cfgRun24_133X_Run2024_test_10172024/Mini/chain_m70_dm20_166_step5_mini.root
p158
aV/store/cmst3/group/softJets/gkaratha/chain_m70_dm20_cfgRun24_133X_Run2024_test_10172024/Mini/chain_m70_dm20_167_step5_mini.root
p159
aV/store/cmst3/group/softJets/gkaratha/chain_m70_dm20_cfgRun24_133X_Run2024_test_10172024/Mini/chain_m70_dm20_168_step5_mini.root
p160
aV/store/cmst3/group/softJets/gkaratha/chain_m70_dm20_cfgRun24_133X_Run2024_test_10172024/Mini/chain_m70_dm20_169_step5_mini.root
p161
aV/store/cmst3/group/softJets/gkaratha/chain_m70_dm20_cfgRun24_133X_Run2024_test_10172024/Mini/chain_m70_dm20_16_step5_mini.root
p162
aV/store/cmst3/group/softJets/gkaratha/chain_m70_dm20_cfgRun24_133X_Run2024_test_10172024/Mini/chain_m70_dm20_170_step5_mini.root
p163
aV/store/cmst3/group/softJets/gkaratha/chain_m70_dm20_cfgRun24_133X_Run2024_test_10172024/Mini/chain_m70_dm20_171_step5_mini.root
p164
aV/store/cmst3/group/softJets/gkaratha/chain_m70_dm20_cfgRun24_133X_Run2024_test_10172024/Mini/chain_m70_dm20_172_step5_mini.root
p165
aV/store/cmst3/group/softJets/gkaratha/chain_m70_dm20_cfgRun24_133X_Run2024_test_10172024/Mini/chain_m70_dm20_173_step5_mini.root
p166
aV/store/cmst3/group/softJets/gkaratha/chain_m70_dm20_cfgRun24_133X_Run2024_test_10172024/Mini/chain_m70_dm20_174_step5_mini.root
p167
aV/store/cmst3/group/softJets/gkaratha/chain_m70_dm20_cfgRun24_133X_Run2024_test_10172024/Mini/chain_m70_dm20_175_step5_mini.root
p168
aV/store/cmst3/group/softJets/gkaratha/chain_m70_dm20_cfgRun24_133X_Run2024_test_10172024/Mini/chain_m70_dm20_176_step5_mini.root
p169
aV/store/cmst3/group/softJets/gkaratha/chain_m70_dm20_cfgRun24_133X_Run2024_test_10172024/Mini/chain_m70_dm20_177_step5_mini.root
p170
aV/store/cmst3/group/softJets/gkaratha/chain_m70_dm20_cfgRun24_133X_Run2024_test_10172024/Mini/chain_m70_dm20_178_step5_mini.root
p171
aV/store/cmst3/group/softJets/gkaratha/chain_m70_dm20_cfgRun24_133X_Run2024_test_10172024/Mini/chain_m70_dm20_179_step5_mini.root
p172
aV/store/cmst3/group/softJets/gkaratha/chain_m70_dm20_cfgRun24_133X_Run2024_test_10172024/Mini/chain_m70_dm20_17_step5_mini.root
p173
aV/store/cmst3/group/softJets/gkaratha/chain_m70_dm20_cfgRun24_133X_Run2024_test_10172024/Mini/chain_m70_dm20_180_step5_mini.root
p174
aV/store/cmst3/group/softJets/gkaratha/chain_m70_dm20_cfgRun24_133X_Run2024_test_10172024/Mini/chain_m70_dm20_181_step5_mini.root
p175
aV/store/cmst3/group/softJets/gkaratha/chain_m70_dm20_cfgRun24_133X_Run2024_test_10172024/Mini/chain_m70_dm20_182_step5_mini.root
p176
aV/store/cmst3/group/softJets/gkaratha/chain_m70_dm20_cfgRun24_133X_Run2024_test_10172024/Mini/chain_m70_dm20_183_step5_mini.root
p177
aV/store/cmst3/group/softJets/gkaratha/chain_m70_dm20_cfgRun24_133X_Run2024_test_10172024/Mini/chain_m70_dm20_184_step5_mini.root
p178
aV/store/cmst3/group/softJets/gkaratha/chain_m70_dm20_cfgRun24_133X_Run2024_test_10172024/Mini/chain_m70_dm20_185_step5_mini.root
p179
aV/store/cmst3/group/softJets/gkaratha/chain_m70_dm20_cfgRun24_133X_Run2024_test_10172024/Mini/chain_m70_dm20_186_step5_mini.root
p180
aV/store/cmst3/group/softJets/gkaratha/chain_m70_dm20_cfgRun24_133X_Run2024_test_10172024/Mini/chain_m70_dm20_187_step5_mini.root
p181
aV/store/cmst3/group/softJets/gkaratha/chain_m70_dm20_cfgRun24_133X_Run2024_test_10172024/Mini/chain_m70_dm20_188_step5_mini.root
p182
aV/store/cmst3/group/softJets/gkaratha/chain_m70_dm20_cfgRun24_133X_Run2024_test_10172024/Mini/chain_m70_dm20_189_step5_mini.root
p183
aV/store/cmst3/group/softJets/gkaratha/chain_m70_dm20_cfgRun24_133X_Run2024_test_10172024/Mini/chain_m70_dm20_18_step5_mini.root
p184
aV/store/cmst3/group/softJets/gkaratha/chain_m70_dm20_cfgRun24_133X_Run2024_test_10172024/Mini/chain_m70_dm20_190_step5_mini.root
p185
aV/store/cmst3/group/softJets/gkaratha/chain_m70_dm20_cfgRun24_133X_Run2024_test_10172024/Mini/chain_m70_dm20_191_step5_mini.root
p186
aV/store/cmst3/group/softJets/gkaratha/chain_m70_dm20_cfgRun24_133X_Run2024_test_10172024/Mini/chain_m70_dm20_192_step5_mini.root
p187
aV/store/cmst3/group/softJets/gkaratha/chain_m70_dm20_cfgRun24_133X_Run2024_test_10172024/Mini/chain_m70_dm20_193_step5_mini.root
p188
aV/store/cmst3/group/softJets/gkaratha/chain_m70_dm20_cfgRun24_133X_Run2024_test_10172024/Mini/chain_m70_dm20_194_step5_mini.root
p189
aV/store/cmst3/group/softJets/gkaratha/chain_m70_dm20_cfgRun24_133X_Run2024_test_10172024/Mini/chain_m70_dm20_195_step5_mini.root
p190
aV/store/cmst3/group/softJets/gkaratha/chain_m70_dm20_cfgRun24_133X_Run2024_test_10172024/Mini/chain_m70_dm20_196_step5_mini.root
p191
aV/store/cmst3/group/softJets/gkaratha/chain_m70_dm20_cfgRun24_133X_Run2024_test_10172024/Mini/chain_m70_dm20_197_step5_mini.root
p192
aV/store/cmst3/group/softJets/gkaratha/chain_m70_dm20_cfgRun24_133X_Run2024_test_10172024/Mini/chain_m70_dm20_198_step5_mini.root
p193
aV/store/cmst3/group/softJets/gkaratha/chain_m70_dm20_cfgRun24_133X_Run2024_test_10172024/Mini/chain_m70_dm20_199_step5_mini.root
p194
aV/store/cmst3/group/softJets/gkaratha/chain_m70_dm20_cfgRun24_133X_Run2024_test_10172024/Mini/chain_m70_dm20_19_step5_mini.root
p195
aV/store/cmst3/group/softJets/gkaratha/chain_m70_dm20_cfgRun24_133X_Run2024_test_10172024/Mini/chain_m70_dm20_1_step5_mini.root
p196
aV/store/cmst3/group/softJets/gkaratha/chain_m70_dm20_cfgRun24_133X_Run2024_test_10172024/Mini/chain_m70_dm20_200_step5_mini.root
p197
aV/store/cmst3/group/softJets/gkaratha/chain_m70_dm20_cfgRun24_133X_Run2024_test_10172024/Mini/chain_m70_dm20_201_step5_mini.root
p198
aV/store/cmst3/group/softJets/gkaratha/chain_m70_dm20_cfgRun24_133X_Run2024_test_10172024/Mini/chain_m70_dm20_202_step5_mini.root
p199
aV/store/cmst3/group/softJets/gkaratha/chain_m70_dm20_cfgRun24_133X_Run2024_test_10172024/Mini/chain_m70_dm20_203_step5_mini.root
p200
aV/store/cmst3/group/softJets/gkaratha/chain_m70_dm20_cfgRun24_133X_Run2024_test_10172024/Mini/chain_m70_dm20_204_step5_mini.root
p201
aV/store/cmst3/group/softJets/gkaratha/chain_m70_dm20_cfgRun24_133X_Run2024_test_10172024/Mini/chain_m70_dm20_205_step5_mini.root
p202
aV/store/cmst3/group/softJets/gkaratha/chain_m70_dm20_cfgRun24_133X_Run2024_test_10172024/Mini/chain_m70_dm20_206_step5_mini.root
p203
aV/store/cmst3/group/softJets/gkaratha/chain_m70_dm20_cfgRun24_133X_Run2024_test_10172024/Mini/chain_m70_dm20_207_step5_mini.root
p204
aV/store/cmst3/group/softJets/gkaratha/chain_m70_dm20_cfgRun24_133X_Run2024_test_10172024/Mini/chain_m70_dm20_208_step5_mini.root
p205
aV/store/cmst3/group/softJets/gkaratha/chain_m70_dm20_cfgRun24_133X_Run2024_test_10172024/Mini/chain_m70_dm20_209_step5_mini.root
p206
aV/store/cmst3/group/softJets/gkaratha/chain_m70_dm20_cfgRun24_133X_Run2024_test_10172024/Mini/chain_m70_dm20_20_step5_mini.root
p207
aV/store/cmst3/group/softJets/gkaratha/chain_m70_dm20_cfgRun24_133X_Run2024_test_10172024/Mini/chain_m70_dm20_210_step5_mini.root
p208
aV/store/cmst3/group/softJets/gkaratha/chain_m70_dm20_cfgRun24_133X_Run2024_test_10172024/Mini/chain_m70_dm20_211_step5_mini.root
p209
aV/store/cmst3/group/softJets/gkaratha/chain_m70_dm20_cfgRun24_133X_Run2024_test_10172024/Mini/chain_m70_dm20_212_step5_mini.root
p210
aV/store/cmst3/group/softJets/gkaratha/chain_m70_dm20_cfgRun24_133X_Run2024_test_10172024/Mini/chain_m70_dm20_213_step5_mini.root
p211
aV/store/cmst3/group/softJets/gkaratha/chain_m70_dm20_cfgRun24_133X_Run2024_test_10172024/Mini/chain_m70_dm20_214_step5_mini.root
p212
aV/store/cmst3/group/softJets/gkaratha/chain_m70_dm20_cfgRun24_133X_Run2024_test_10172024/Mini/chain_m70_dm20_215_step5_mini.root
p213
aV/store/cmst3/group/softJets/gkaratha/chain_m70_dm20_cfgRun24_133X_Run2024_test_10172024/Mini/chain_m70_dm20_216_step5_mini.root
p214
aV/store/cmst3/group/softJets/gkaratha/chain_m70_dm20_cfgRun24_133X_Run2024_test_10172024/Mini/chain_m70_dm20_217_step5_mini.root
p215
aV/store/cmst3/group/softJets/gkaratha/chain_m70_dm20_cfgRun24_133X_Run2024_test_10172024/Mini/chain_m70_dm20_218_step5_mini.root
p216
aV/store/cmst3/group/softJets/gkaratha/chain_m70_dm20_cfgRun24_133X_Run2024_test_10172024/Mini/chain_m70_dm20_219_step5_mini.root
p217
aV/store/cmst3/group/softJets/gkaratha/chain_m70_dm20_cfgRun24_133X_Run2024_test_10172024/Mini/chain_m70_dm20_21_step5_mini.root
p218
aV/store/cmst3/group/softJets/gkaratha/chain_m70_dm20_cfgRun24_133X_Run2024_test_10172024/Mini/chain_m70_dm20_220_step5_mini.root
p219
aV/store/cmst3/group/softJets/gkaratha/chain_m70_dm20_cfgRun24_133X_Run2024_test_10172024/Mini/chain_m70_dm20_221_step5_mini.root
p220
aV/store/cmst3/group/softJets/gkaratha/chain_m70_dm20_cfgRun24_133X_Run2024_test_10172024/Mini/chain_m70_dm20_222_step5_mini.root
p221
aV/store/cmst3/group/softJets/gkaratha/chain_m70_dm20_cfgRun24_133X_Run2024_test_10172024/Mini/chain_m70_dm20_223_step5_mini.root
p222
aV/store/cmst3/group/softJets/gkaratha/chain_m70_dm20_cfgRun24_133X_Run2024_test_10172024/Mini/chain_m70_dm20_224_step5_mini.root
p223
aV/store/cmst3/group/softJets/gkaratha/chain_m70_dm20_cfgRun24_133X_Run2024_test_10172024/Mini/chain_m70_dm20_225_step5_mini.root
p224
aV/store/cmst3/group/softJets/gkaratha/chain_m70_dm20_cfgRun24_133X_Run2024_test_10172024/Mini/chain_m70_dm20_226_step5_mini.root
p225
aV/store/cmst3/group/softJets/gkaratha/chain_m70_dm20_cfgRun24_133X_Run2024_test_10172024/Mini/chain_m70_dm20_227_step5_mini.root
p226
aV/store/cmst3/group/softJets/gkaratha/chain_m70_dm20_cfgRun24_133X_Run2024_test_10172024/Mini/chain_m70_dm20_228_step5_mini.root
p227
aV/store/cmst3/group/softJets/gkaratha/chain_m70_dm20_cfgRun24_133X_Run2024_test_10172024/Mini/chain_m70_dm20_229_step5_mini.root
p228
aV/store/cmst3/group/softJets/gkaratha/chain_m70_dm20_cfgRun24_133X_Run2024_test_10172024/Mini/chain_m70_dm20_22_step5_mini.root
p229
aV/store/cmst3/group/softJets/gkaratha/chain_m70_dm20_cfgRun24_133X_Run2024_test_10172024/Mini/chain_m70_dm20_230_step5_mini.root
p230
aV/store/cmst3/group/softJets/gkaratha/chain_m70_dm20_cfgRun24_133X_Run2024_test_10172024/Mini/chain_m70_dm20_231_step5_mini.root
p231
aV/store/cmst3/group/softJets/gkaratha/chain_m70_dm20_cfgRun24_133X_Run2024_test_10172024/Mini/chain_m70_dm20_232_step5_mini.root
p232
aV/store/cmst3/group/softJets/gkaratha/chain_m70_dm20_cfgRun24_133X_Run2024_test_10172024/Mini/chain_m70_dm20_233_step5_mini.root
p233
aV/store/cmst3/group/softJets/gkaratha/chain_m70_dm20_cfgRun24_133X_Run2024_test_10172024/Mini/chain_m70_dm20_234_step5_mini.root
p234
aV/store/cmst3/group/softJets/gkaratha/chain_m70_dm20_cfgRun24_133X_Run2024_test_10172024/Mini/chain_m70_dm20_235_step5_mini.root
p235
aV/store/cmst3/group/softJets/gkaratha/chain_m70_dm20_cfgRun24_133X_Run2024_test_10172024/Mini/chain_m70_dm20_236_step5_mini.root
p236
aV/store/cmst3/group/softJets/gkaratha/chain_m70_dm20_cfgRun24_133X_Run2024_test_10172024/Mini/chain_m70_dm20_237_step5_mini.root
p237
aV/store/cmst3/group/softJets/gkaratha/chain_m70_dm20_cfgRun24_133X_Run2024_test_10172024/Mini/chain_m70_dm20_238_step5_mini.root
p238
aV/store/cmst3/group/softJets/gkaratha/chain_m70_dm20_cfgRun24_133X_Run2024_test_10172024/Mini/chain_m70_dm20_239_step5_mini.root
p239
aV/store/cmst3/group/softJets/gkaratha/chain_m70_dm20_cfgRun24_133X_Run2024_test_10172024/Mini/chain_m70_dm20_23_step5_mini.root
p240
aV/store/cmst3/group/softJets/gkaratha/chain_m70_dm20_cfgRun24_133X_Run2024_test_10172024/Mini/chain_m70_dm20_240_step5_mini.root
p241
aV/store/cmst3/group/softJets/gkaratha/chain_m70_dm20_cfgRun24_133X_Run2024_test_10172024/Mini/chain_m70_dm20_241_step5_mini.root
p242
aV/store/cmst3/group/softJets/gkaratha/chain_m70_dm20_cfgRun24_133X_Run2024_test_10172024/Mini/chain_m70_dm20_242_step5_mini.root
p243
aV/store/cmst3/group/softJets/gkaratha/chain_m70_dm20_cfgRun24_133X_Run2024_test_10172024/Mini/chain_m70_dm20_243_step5_mini.root
p244
aV/store/cmst3/group/softJets/gkaratha/chain_m70_dm20_cfgRun24_133X_Run2024_test_10172024/Mini/chain_m70_dm20_244_step5_mini.root
p245
aV/store/cmst3/group/softJets/gkaratha/chain_m70_dm20_cfgRun24_133X_Run2024_test_10172024/Mini/chain_m70_dm20_245_step5_mini.root
p246
aV/store/cmst3/group/softJets/gkaratha/chain_m70_dm20_cfgRun24_133X_Run2024_test_10172024/Mini/chain_m70_dm20_246_step5_mini.root
p247
aV/store/cmst3/group/softJets/gkaratha/chain_m70_dm20_cfgRun24_133X_Run2024_test_10172024/Mini/chain_m70_dm20_247_step5_mini.root
p248
aV/store/cmst3/group/softJets/gkaratha/chain_m70_dm20_cfgRun24_133X_Run2024_test_10172024/Mini/chain_m70_dm20_248_step5_mini.root
p249
aV/store/cmst3/group/softJets/gkaratha/chain_m70_dm20_cfgRun24_133X_Run2024_test_10172024/Mini/chain_m70_dm20_249_step5_mini.root
p250
aV/store/cmst3/group/softJets/gkaratha/chain_m70_dm20_cfgRun24_133X_Run2024_test_10172024/Mini/chain_m70_dm20_24_step5_mini.root
p251
aV/store/cmst3/group/softJets/gkaratha/chain_m70_dm20_cfgRun24_133X_Run2024_test_10172024/Mini/chain_m70_dm20_250_step5_mini.root
p252
aV/store/cmst3/group/softJets/gkaratha/chain_m70_dm20_cfgRun24_133X_Run2024_test_10172024/Mini/chain_m70_dm20_251_step5_mini.root
p253
aV/store/cmst3/group/softJets/gkaratha/chain_m70_dm20_cfgRun24_133X_Run2024_test_10172024/Mini/chain_m70_dm20_252_step5_mini.root
p254
aV/store/cmst3/group/softJets/gkaratha/chain_m70_dm20_cfgRun24_133X_Run2024_test_10172024/Mini/chain_m70_dm20_253_step5_mini.root
p255
aV/store/cmst3/group/softJets/gkaratha/chain_m70_dm20_cfgRun24_133X_Run2024_test_10172024/Mini/chain_m70_dm20_254_step5_mini.root
p256
aV/store/cmst3/group/softJets/gkaratha/chain_m70_dm20_cfgRun24_133X_Run2024_test_10172024/Mini/chain_m70_dm20_255_step5_mini.root
p257
aV/store/cmst3/group/softJets/gkaratha/chain_m70_dm20_cfgRun24_133X_Run2024_test_10172024/Mini/chain_m70_dm20_256_step5_mini.root
p258
aV/store/cmst3/group/softJets/gkaratha/chain_m70_dm20_cfgRun24_133X_Run2024_test_10172024/Mini/chain_m70_dm20_257_step5_mini.root
p259
aV/store/cmst3/group/softJets/gkaratha/chain_m70_dm20_cfgRun24_133X_Run2024_test_10172024/Mini/chain_m70_dm20_258_step5_mini.root
p260
aV/store/cmst3/group/softJets/gkaratha/chain_m70_dm20_cfgRun24_133X_Run2024_test_10172024/Mini/chain_m70_dm20_259_step5_mini.root
p261
aV/store/cmst3/group/softJets/gkaratha/chain_m70_dm20_cfgRun24_133X_Run2024_test_10172024/Mini/chain_m70_dm20_25_step5_mini.root
p262
aV/store/cmst3/group/softJets/gkaratha/chain_m70_dm20_cfgRun24_133X_Run2024_test_10172024/Mini/chain_m70_dm20_260_step5_mini.root
p263
aV/store/cmst3/group/softJets/gkaratha/chain_m70_dm20_cfgRun24_133X_Run2024_test_10172024/Mini/chain_m70_dm20_261_step5_mini.root
p264
aV/store/cmst3/group/softJets/gkaratha/chain_m70_dm20_cfgRun24_133X_Run2024_test_10172024/Mini/chain_m70_dm20_262_step5_mini.root
p265
aV/store/cmst3/group/softJets/gkaratha/chain_m70_dm20_cfgRun24_133X_Run2024_test_10172024/Mini/chain_m70_dm20_263_step5_mini.root
p266
aV/store/cmst3/group/softJets/gkaratha/chain_m70_dm20_cfgRun24_133X_Run2024_test_10172024/Mini/chain_m70_dm20_264_step5_mini.root
p267
aV/store/cmst3/group/softJets/gkaratha/chain_m70_dm20_cfgRun24_133X_Run2024_test_10172024/Mini/chain_m70_dm20_265_step5_mini.root
p268
aV/store/cmst3/group/softJets/gkaratha/chain_m70_dm20_cfgRun24_133X_Run2024_test_10172024/Mini/chain_m70_dm20_266_step5_mini.root
p269
aV/store/cmst3/group/softJets/gkaratha/chain_m70_dm20_cfgRun24_133X_Run2024_test_10172024/Mini/chain_m70_dm20_267_step5_mini.root
p270
aV/store/cmst3/group/softJets/gkaratha/chain_m70_dm20_cfgRun24_133X_Run2024_test_10172024/Mini/chain_m70_dm20_268_step5_mini.root
p271
aV/store/cmst3/group/softJets/gkaratha/chain_m70_dm20_cfgRun24_133X_Run2024_test_10172024/Mini/chain_m70_dm20_269_step5_mini.root
p272
aV/store/cmst3/group/softJets/gkaratha/chain_m70_dm20_cfgRun24_133X_Run2024_test_10172024/Mini/chain_m70_dm20_26_step5_mini.root
p273
aV/store/cmst3/group/softJets/gkaratha/chain_m70_dm20_cfgRun24_133X_Run2024_test_10172024/Mini/chain_m70_dm20_270_step5_mini.root
p274
aV/store/cmst3/group/softJets/gkaratha/chain_m70_dm20_cfgRun24_133X_Run2024_test_10172024/Mini/chain_m70_dm20_271_step5_mini.root
p275
aV/store/cmst3/group/softJets/gkaratha/chain_m70_dm20_cfgRun24_133X_Run2024_test_10172024/Mini/chain_m70_dm20_272_step5_mini.root
p276
aV/store/cmst3/group/softJets/gkaratha/chain_m70_dm20_cfgRun24_133X_Run2024_test_10172024/Mini/chain_m70_dm20_273_step5_mini.root
p277
aV/store/cmst3/group/softJets/gkaratha/chain_m70_dm20_cfgRun24_133X_Run2024_test_10172024/Mini/chain_m70_dm20_274_step5_mini.root
p278
aV/store/cmst3/group/softJets/gkaratha/chain_m70_dm20_cfgRun24_133X_Run2024_test_10172024/Mini/chain_m70_dm20_275_step5_mini.root
p279
aV/store/cmst3/group/softJets/gkaratha/chain_m70_dm20_cfgRun24_133X_Run2024_test_10172024/Mini/chain_m70_dm20_276_step5_mini.root
p280
aV/store/cmst3/group/softJets/gkaratha/chain_m70_dm20_cfgRun24_133X_Run2024_test_10172024/Mini/chain_m70_dm20_277_step5_mini.root
p281
aV/store/cmst3/group/softJets/gkaratha/chain_m70_dm20_cfgRun24_133X_Run2024_test_10172024/Mini/chain_m70_dm20_278_step5_mini.root
p282
aV/store/cmst3/group/softJets/gkaratha/chain_m70_dm20_cfgRun24_133X_Run2024_test_10172024/Mini/chain_m70_dm20_279_step5_mini.root
p283
aV/store/cmst3/group/softJets/gkaratha/chain_m70_dm20_cfgRun24_133X_Run2024_test_10172024/Mini/chain_m70_dm20_27_step5_mini.root
p284
aV/store/cmst3/group/softJets/gkaratha/chain_m70_dm20_cfgRun24_133X_Run2024_test_10172024/Mini/chain_m70_dm20_280_step5_mini.root
p285
aV/store/cmst3/group/softJets/gkaratha/chain_m70_dm20_cfgRun24_133X_Run2024_test_10172024/Mini/chain_m70_dm20_281_step5_mini.root
p286
aV/store/cmst3/group/softJets/gkaratha/chain_m70_dm20_cfgRun24_133X_Run2024_test_10172024/Mini/chain_m70_dm20_282_step5_mini.root
p287
aV/store/cmst3/group/softJets/gkaratha/chain_m70_dm20_cfgRun24_133X_Run2024_test_10172024/Mini/chain_m70_dm20_283_step5_mini.root
p288
aV/store/cmst3/group/softJets/gkaratha/chain_m70_dm20_cfgRun24_133X_Run2024_test_10172024/Mini/chain_m70_dm20_284_step5_mini.root
p289
aV/store/cmst3/group/softJets/gkaratha/chain_m70_dm20_cfgRun24_133X_Run2024_test_10172024/Mini/chain_m70_dm20_285_step5_mini.root
p290
aV/store/cmst3/group/softJets/gkaratha/chain_m70_dm20_cfgRun24_133X_Run2024_test_10172024/Mini/chain_m70_dm20_286_step5_mini.root
p291
aV/store/cmst3/group/softJets/gkaratha/chain_m70_dm20_cfgRun24_133X_Run2024_test_10172024/Mini/chain_m70_dm20_287_step5_mini.root
p292
aV/store/cmst3/group/softJets/gkaratha/chain_m70_dm20_cfgRun24_133X_Run2024_test_10172024/Mini/chain_m70_dm20_288_step5_mini.root
p293
aV/store/cmst3/group/softJets/gkaratha/chain_m70_dm20_cfgRun24_133X_Run2024_test_10172024/Mini/chain_m70_dm20_289_step5_mini.root
p294
aV/store/cmst3/group/softJets/gkaratha/chain_m70_dm20_cfgRun24_133X_Run2024_test_10172024/Mini/chain_m70_dm20_28_step5_mini.root
p295
aV/store/cmst3/group/softJets/gkaratha/chain_m70_dm20_cfgRun24_133X_Run2024_test_10172024/Mini/chain_m70_dm20_290_step5_mini.root
p296
aV/store/cmst3/group/softJets/gkaratha/chain_m70_dm20_cfgRun24_133X_Run2024_test_10172024/Mini/chain_m70_dm20_291_step5_mini.root
p297
aV/store/cmst3/group/softJets/gkaratha/chain_m70_dm20_cfgRun24_133X_Run2024_test_10172024/Mini/chain_m70_dm20_292_step5_mini.root
p298
aV/store/cmst3/group/softJets/gkaratha/chain_m70_dm20_cfgRun24_133X_Run2024_test_10172024/Mini/chain_m70_dm20_293_step5_mini.root
p299
aV/store/cmst3/group/softJets/gkaratha/chain_m70_dm20_cfgRun24_133X_Run2024_test_10172024/Mini/chain_m70_dm20_294_step5_mini.root
p300
aV/store/cmst3/group/softJets/gkaratha/chain_m70_dm20_cfgRun24_133X_Run2024_test_10172024/Mini/chain_m70_dm20_295_step5_mini.root
p301
aV/store/cmst3/group/softJets/gkaratha/chain_m70_dm20_cfgRun24_133X_Run2024_test_10172024/Mini/chain_m70_dm20_296_step5_mini.root
p302
aV/store/cmst3/group/softJets/gkaratha/chain_m70_dm20_cfgRun24_133X_Run2024_test_10172024/Mini/chain_m70_dm20_297_step5_mini.root
p303
aV/store/cmst3/group/softJets/gkaratha/chain_m70_dm20_cfgRun24_133X_Run2024_test_10172024/Mini/chain_m70_dm20_298_step5_mini.root
p304
aV/store/cmst3/group/softJets/gkaratha/chain_m70_dm20_cfgRun24_133X_Run2024_test_10172024/Mini/chain_m70_dm20_299_step5_mini.root
p305
aV/store/cmst3/group/softJets/gkaratha/chain_m70_dm20_cfgRun24_133X_Run2024_test_10172024/Mini/chain_m70_dm20_29_step5_mini.root
p306
aV/store/cmst3/group/softJets/gkaratha/chain_m70_dm20_cfgRun24_133X_Run2024_test_10172024/Mini/chain_m70_dm20_2_step5_mini.root
p307
aV/store/cmst3/group/softJets/gkaratha/chain_m70_dm20_cfgRun24_133X_Run2024_test_10172024/Mini/chain_m70_dm20_300_step5_mini.root
p308
aV/store/cmst3/group/softJets/gkaratha/chain_m70_dm20_cfgRun24_133X_Run2024_test_10172024/Mini/chain_m70_dm20_301_step5_mini.root
p309
aV/store/cmst3/group/softJets/gkaratha/chain_m70_dm20_cfgRun24_133X_Run2024_test_10172024/Mini/chain_m70_dm20_302_step5_mini.root
p310
aV/store/cmst3/group/softJets/gkaratha/chain_m70_dm20_cfgRun24_133X_Run2024_test_10172024/Mini/chain_m70_dm20_303_step5_mini.root
p311
aV/store/cmst3/group/softJets/gkaratha/chain_m70_dm20_cfgRun24_133X_Run2024_test_10172024/Mini/chain_m70_dm20_304_step5_mini.root
p312
aV/store/cmst3/group/softJets/gkaratha/chain_m70_dm20_cfgRun24_133X_Run2024_test_10172024/Mini/chain_m70_dm20_305_step5_mini.root
p313
aV/store/cmst3/group/softJets/gkaratha/chain_m70_dm20_cfgRun24_133X_Run2024_test_10172024/Mini/chain_m70_dm20_306_step5_mini.root
p314
aV/store/cmst3/group/softJets/gkaratha/chain_m70_dm20_cfgRun24_133X_Run2024_test_10172024/Mini/chain_m70_dm20_307_step5_mini.root
p315
aV/store/cmst3/group/softJets/gkaratha/chain_m70_dm20_cfgRun24_133X_Run2024_test_10172024/Mini/chain_m70_dm20_308_step5_mini.root
p316
aV/store/cmst3/group/softJets/gkaratha/chain_m70_dm20_cfgRun24_133X_Run2024_test_10172024/Mini/chain_m70_dm20_309_step5_mini.root
p317
aV/store/cmst3/group/softJets/gkaratha/chain_m70_dm20_cfgRun24_133X_Run2024_test_10172024/Mini/chain_m70_dm20_30_step5_mini.root
p318
aV/store/cmst3/group/softJets/gkaratha/chain_m70_dm20_cfgRun24_133X_Run2024_test_10172024/Mini/chain_m70_dm20_310_step5_mini.root
p319
aV/store/cmst3/group/softJets/gkaratha/chain_m70_dm20_cfgRun24_133X_Run2024_test_10172024/Mini/chain_m70_dm20_311_step5_mini.root
p320
aV/store/cmst3/group/softJets/gkaratha/chain_m70_dm20_cfgRun24_133X_Run2024_test_10172024/Mini/chain_m70_dm20_312_step5_mini.root
p321
aV/store/cmst3/group/softJets/gkaratha/chain_m70_dm20_cfgRun24_133X_Run2024_test_10172024/Mini/chain_m70_dm20_313_step5_mini.root
p322
aV/store/cmst3/group/softJets/gkaratha/chain_m70_dm20_cfgRun24_133X_Run2024_test_10172024/Mini/chain_m70_dm20_314_step5_mini.root
p323
aV/store/cmst3/group/softJets/gkaratha/chain_m70_dm20_cfgRun24_133X_Run2024_test_10172024/Mini/chain_m70_dm20_315_step5_mini.root
p324
aV/store/cmst3/group/softJets/gkaratha/chain_m70_dm20_cfgRun24_133X_Run2024_test_10172024/Mini/chain_m70_dm20_316_step5_mini.root
p325
aV/store/cmst3/group/softJets/gkaratha/chain_m70_dm20_cfgRun24_133X_Run2024_test_10172024/Mini/chain_m70_dm20_317_step5_mini.root
p326
aV/store/cmst3/group/softJets/gkaratha/chain_m70_dm20_cfgRun24_133X_Run2024_test_10172024/Mini/chain_m70_dm20_318_step5_mini.root
p327
aV/store/cmst3/group/softJets/gkaratha/chain_m70_dm20_cfgRun24_133X_Run2024_test_10172024/Mini/chain_m70_dm20_319_step5_mini.root
p328
aV/store/cmst3/group/softJets/gkaratha/chain_m70_dm20_cfgRun24_133X_Run2024_test_10172024/Mini/chain_m70_dm20_31_step5_mini.root
p329
aV/store/cmst3/group/softJets/gkaratha/chain_m70_dm20_cfgRun24_133X_Run2024_test_10172024/Mini/chain_m70_dm20_320_step5_mini.root
p330
aV/store/cmst3/group/softJets/gkaratha/chain_m70_dm20_cfgRun24_133X_Run2024_test_10172024/Mini/chain_m70_dm20_321_step5_mini.root
p331
aV/store/cmst3/group/softJets/gkaratha/chain_m70_dm20_cfgRun24_133X_Run2024_test_10172024/Mini/chain_m70_dm20_322_step5_mini.root
p332
aV/store/cmst3/group/softJets/gkaratha/chain_m70_dm20_cfgRun24_133X_Run2024_test_10172024/Mini/chain_m70_dm20_323_step5_mini.root
p333
aV/store/cmst3/group/softJets/gkaratha/chain_m70_dm20_cfgRun24_133X_Run2024_test_10172024/Mini/chain_m70_dm20_324_step5_mini.root
p334
aV/store/cmst3/group/softJets/gkaratha/chain_m70_dm20_cfgRun24_133X_Run2024_test_10172024/Mini/chain_m70_dm20_325_step5_mini.root
p335
aV/store/cmst3/group/softJets/gkaratha/chain_m70_dm20_cfgRun24_133X_Run2024_test_10172024/Mini/chain_m70_dm20_326_step5_mini.root
p336
aV/store/cmst3/group/softJets/gkaratha/chain_m70_dm20_cfgRun24_133X_Run2024_test_10172024/Mini/chain_m70_dm20_327_step5_mini.root
p337
aV/store/cmst3/group/softJets/gkaratha/chain_m70_dm20_cfgRun24_133X_Run2024_test_10172024/Mini/chain_m70_dm20_328_step5_mini.root
p338
aV/store/cmst3/group/softJets/gkaratha/chain_m70_dm20_cfgRun24_133X_Run2024_test_10172024/Mini/chain_m70_dm20_329_step5_mini.root
p339
aV/store/cmst3/group/softJets/gkaratha/chain_m70_dm20_cfgRun24_133X_Run2024_test_10172024/Mini/chain_m70_dm20_32_step5_mini.root
p340
aV/store/cmst3/group/softJets/gkaratha/chain_m70_dm20_cfgRun24_133X_Run2024_test_10172024/Mini/chain_m70_dm20_330_step5_mini.root
p341
aV/store/cmst3/group/softJets/gkaratha/chain_m70_dm20_cfgRun24_133X_Run2024_test_10172024/Mini/chain_m70_dm20_331_step5_mini.root
p342
aV/store/cmst3/group/softJets/gkaratha/chain_m70_dm20_cfgRun24_133X_Run2024_test_10172024/Mini/chain_m70_dm20_332_step5_mini.root
p343
aV/store/cmst3/group/softJets/gkaratha/chain_m70_dm20_cfgRun24_133X_Run2024_test_10172024/Mini/chain_m70_dm20_333_step5_mini.root
p344
aV/store/cmst3/group/softJets/gkaratha/chain_m70_dm20_cfgRun24_133X_Run2024_test_10172024/Mini/chain_m70_dm20_334_step5_mini.root
p345
aV/store/cmst3/group/softJets/gkaratha/chain_m70_dm20_cfgRun24_133X_Run2024_test_10172024/Mini/chain_m70_dm20_335_step5_mini.root
p346
aV/store/cmst3/group/softJets/gkaratha/chain_m70_dm20_cfgRun24_133X_Run2024_test_10172024/Mini/chain_m70_dm20_336_step5_mini.root
p347
aV/store/cmst3/group/softJets/gkaratha/chain_m70_dm20_cfgRun24_133X_Run2024_test_10172024/Mini/chain_m70_dm20_337_step5_mini.root
p348
aV/store/cmst3/group/softJets/gkaratha/chain_m70_dm20_cfgRun24_133X_Run2024_test_10172024/Mini/chain_m70_dm20_338_step5_mini.root
p349
aV/store/cmst3/group/softJets/gkaratha/chain_m70_dm20_cfgRun24_133X_Run2024_test_10172024/Mini/chain_m70_dm20_339_step5_mini.root
p350
aV/store/cmst3/group/softJets/gkaratha/chain_m70_dm20_cfgRun24_133X_Run2024_test_10172024/Mini/chain_m70_dm20_33_step5_mini.root
p351
aV/store/cmst3/group/softJets/gkaratha/chain_m70_dm20_cfgRun24_133X_Run2024_test_10172024/Mini/chain_m70_dm20_340_step5_mini.root
p352
aV/store/cmst3/group/softJets/gkaratha/chain_m70_dm20_cfgRun24_133X_Run2024_test_10172024/Mini/chain_m70_dm20_341_step5_mini.root
p353
aV/store/cmst3/group/softJets/gkaratha/chain_m70_dm20_cfgRun24_133X_Run2024_test_10172024/Mini/chain_m70_dm20_342_step5_mini.root
p354
aV/store/cmst3/group/softJets/gkaratha/chain_m70_dm20_cfgRun24_133X_Run2024_test_10172024/Mini/chain_m70_dm20_343_step5_mini.root
p355
aV/store/cmst3/group/softJets/gkaratha/chain_m70_dm20_cfgRun24_133X_Run2024_test_10172024/Mini/chain_m70_dm20_344_step5_mini.root
p356
aV/store/cmst3/group/softJets/gkaratha/chain_m70_dm20_cfgRun24_133X_Run2024_test_10172024/Mini/chain_m70_dm20_345_step5_mini.root
p357
aV/store/cmst3/group/softJets/gkaratha/chain_m70_dm20_cfgRun24_133X_Run2024_test_10172024/Mini/chain_m70_dm20_346_step5_mini.root
p358
aV/store/cmst3/group/softJets/gkaratha/chain_m70_dm20_cfgRun24_133X_Run2024_test_10172024/Mini/chain_m70_dm20_347_step5_mini.root
p359
aV/store/cmst3/group/softJets/gkaratha/chain_m70_dm20_cfgRun24_133X_Run2024_test_10172024/Mini/chain_m70_dm20_348_step5_mini.root
p360
aV/store/cmst3/group/softJets/gkaratha/chain_m70_dm20_cfgRun24_133X_Run2024_test_10172024/Mini/chain_m70_dm20_349_step5_mini.root
p361
aV/store/cmst3/group/softJets/gkaratha/chain_m70_dm20_cfgRun24_133X_Run2024_test_10172024/Mini/chain_m70_dm20_34_step5_mini.root
p362
aV/store/cmst3/group/softJets/gkaratha/chain_m70_dm20_cfgRun24_133X_Run2024_test_10172024/Mini/chain_m70_dm20_350_step5_mini.root
p363
aV/store/cmst3/group/softJets/gkaratha/chain_m70_dm20_cfgRun24_133X_Run2024_test_10172024/Mini/chain_m70_dm20_351_step5_mini.root
p364
aV/store/cmst3/group/softJets/gkaratha/chain_m70_dm20_cfgRun24_133X_Run2024_test_10172024/Mini/chain_m70_dm20_352_step5_mini.root
p365
aV/store/cmst3/group/softJets/gkaratha/chain_m70_dm20_cfgRun24_133X_Run2024_test_10172024/Mini/chain_m70_dm20_353_step5_mini.root
p366
aV/store/cmst3/group/softJets/gkaratha/chain_m70_dm20_cfgRun24_133X_Run2024_test_10172024/Mini/chain_m70_dm20_354_step5_mini.root
p367
aV/store/cmst3/group/softJets/gkaratha/chain_m70_dm20_cfgRun24_133X_Run2024_test_10172024/Mini/chain_m70_dm20_355_step5_mini.root
p368
aV/store/cmst3/group/softJets/gkaratha/chain_m70_dm20_cfgRun24_133X_Run2024_test_10172024/Mini/chain_m70_dm20_356_step5_mini.root
p369
aV/store/cmst3/group/softJets/gkaratha/chain_m70_dm20_cfgRun24_133X_Run2024_test_10172024/Mini/chain_m70_dm20_357_step5_mini.root
p370
aV/store/cmst3/group/softJets/gkaratha/chain_m70_dm20_cfgRun24_133X_Run2024_test_10172024/Mini/chain_m70_dm20_358_step5_mini.root
p371
aV/store/cmst3/group/softJets/gkaratha/chain_m70_dm20_cfgRun24_133X_Run2024_test_10172024/Mini/chain_m70_dm20_359_step5_mini.root
p372
aV/store/cmst3/group/softJets/gkaratha/chain_m70_dm20_cfgRun24_133X_Run2024_test_10172024/Mini/chain_m70_dm20_35_step5_mini.root
p373
aV/store/cmst3/group/softJets/gkaratha/chain_m70_dm20_cfgRun24_133X_Run2024_test_10172024/Mini/chain_m70_dm20_360_step5_mini.root
p374
aV/store/cmst3/group/softJets/gkaratha/chain_m70_dm20_cfgRun24_133X_Run2024_test_10172024/Mini/chain_m70_dm20_361_step5_mini.root
p375
aV/store/cmst3/group/softJets/gkaratha/chain_m70_dm20_cfgRun24_133X_Run2024_test_10172024/Mini/chain_m70_dm20_362_step5_mini.root
p376
aV/store/cmst3/group/softJets/gkaratha/chain_m70_dm20_cfgRun24_133X_Run2024_test_10172024/Mini/chain_m70_dm20_363_step5_mini.root
p377
aV/store/cmst3/group/softJets/gkaratha/chain_m70_dm20_cfgRun24_133X_Run2024_test_10172024/Mini/chain_m70_dm20_364_step5_mini.root
p378
aV/store/cmst3/group/softJets/gkaratha/chain_m70_dm20_cfgRun24_133X_Run2024_test_10172024/Mini/chain_m70_dm20_365_step5_mini.root
p379
aV/store/cmst3/group/softJets/gkaratha/chain_m70_dm20_cfgRun24_133X_Run2024_test_10172024/Mini/chain_m70_dm20_366_step5_mini.root
p380
aV/store/cmst3/group/softJets/gkaratha/chain_m70_dm20_cfgRun24_133X_Run2024_test_10172024/Mini/chain_m70_dm20_367_step5_mini.root
p381
aV/store/cmst3/group/softJets/gkaratha/chain_m70_dm20_cfgRun24_133X_Run2024_test_10172024/Mini/chain_m70_dm20_368_step5_mini.root
p382
aV/store/cmst3/group/softJets/gkaratha/chain_m70_dm20_cfgRun24_133X_Run2024_test_10172024/Mini/chain_m70_dm20_369_step5_mini.root
p383
aV/store/cmst3/group/softJets/gkaratha/chain_m70_dm20_cfgRun24_133X_Run2024_test_10172024/Mini/chain_m70_dm20_36_step5_mini.root
p384
aV/store/cmst3/group/softJets/gkaratha/chain_m70_dm20_cfgRun24_133X_Run2024_test_10172024/Mini/chain_m70_dm20_370_step5_mini.root
p385
aV/store/cmst3/group/softJets/gkaratha/chain_m70_dm20_cfgRun24_133X_Run2024_test_10172024/Mini/chain_m70_dm20_371_step5_mini.root
p386
aV/store/cmst3/group/softJets/gkaratha/chain_m70_dm20_cfgRun24_133X_Run2024_test_10172024/Mini/chain_m70_dm20_372_step5_mini.root
p387
aV/store/cmst3/group/softJets/gkaratha/chain_m70_dm20_cfgRun24_133X_Run2024_test_10172024/Mini/chain_m70_dm20_373_step5_mini.root
p388
aV/store/cmst3/group/softJets/gkaratha/chain_m70_dm20_cfgRun24_133X_Run2024_test_10172024/Mini/chain_m70_dm20_374_step5_mini.root
p389
aV/store/cmst3/group/softJets/gkaratha/chain_m70_dm20_cfgRun24_133X_Run2024_test_10172024/Mini/chain_m70_dm20_375_step5_mini.root
p390
aV/store/cmst3/group/softJets/gkaratha/chain_m70_dm20_cfgRun24_133X_Run2024_test_10172024/Mini/chain_m70_dm20_376_step5_mini.root
p391
aV/store/cmst3/group/softJets/gkaratha/chain_m70_dm20_cfgRun24_133X_Run2024_test_10172024/Mini/chain_m70_dm20_377_step5_mini.root
p392
aV/store/cmst3/group/softJets/gkaratha/chain_m70_dm20_cfgRun24_133X_Run2024_test_10172024/Mini/chain_m70_dm20_378_step5_mini.root
p393
aV/store/cmst3/group/softJets/gkaratha/chain_m70_dm20_cfgRun24_133X_Run2024_test_10172024/Mini/chain_m70_dm20_379_step5_mini.root
p394
aV/store/cmst3/group/softJets/gkaratha/chain_m70_dm20_cfgRun24_133X_Run2024_test_10172024/Mini/chain_m70_dm20_37_step5_mini.root
p395
aV/store/cmst3/group/softJets/gkaratha/chain_m70_dm20_cfgRun24_133X_Run2024_test_10172024/Mini/chain_m70_dm20_380_step5_mini.root
p396
aV/store/cmst3/group/softJets/gkaratha/chain_m70_dm20_cfgRun24_133X_Run2024_test_10172024/Mini/chain_m70_dm20_381_step5_mini.root
p397
aV/store/cmst3/group/softJets/gkaratha/chain_m70_dm20_cfgRun24_133X_Run2024_test_10172024/Mini/chain_m70_dm20_382_step5_mini.root
p398
aV/store/cmst3/group/softJets/gkaratha/chain_m70_dm20_cfgRun24_133X_Run2024_test_10172024/Mini/chain_m70_dm20_383_step5_mini.root
p399
aV/store/cmst3/group/softJets/gkaratha/chain_m70_dm20_cfgRun24_133X_Run2024_test_10172024/Mini/chain_m70_dm20_384_step5_mini.root
p400
aV/store/cmst3/group/softJets/gkaratha/chain_m70_dm20_cfgRun24_133X_Run2024_test_10172024/Mini/chain_m70_dm20_385_step5_mini.root
p401
aV/store/cmst3/group/softJets/gkaratha/chain_m70_dm20_cfgRun24_133X_Run2024_test_10172024/Mini/chain_m70_dm20_386_step5_mini.root
p402
aV/store/cmst3/group/softJets/gkaratha/chain_m70_dm20_cfgRun24_133X_Run2024_test_10172024/Mini/chain_m70_dm20_387_step5_mini.root
p403
aV/store/cmst3/group/softJets/gkaratha/chain_m70_dm20_cfgRun24_133X_Run2024_test_10172024/Mini/chain_m70_dm20_388_step5_mini.root
p404
aV/store/cmst3/group/softJets/gkaratha/chain_m70_dm20_cfgRun24_133X_Run2024_test_10172024/Mini/chain_m70_dm20_389_step5_mini.root
p405
aV/store/cmst3/group/softJets/gkaratha/chain_m70_dm20_cfgRun24_133X_Run2024_test_10172024/Mini/chain_m70_dm20_38_step5_mini.root
p406
aV/store/cmst3/group/softJets/gkaratha/chain_m70_dm20_cfgRun24_133X_Run2024_test_10172024/Mini/chain_m70_dm20_390_step5_mini.root
p407
aV/store/cmst3/group/softJets/gkaratha/chain_m70_dm20_cfgRun24_133X_Run2024_test_10172024/Mini/chain_m70_dm20_391_step5_mini.root
p408
aV/store/cmst3/group/softJets/gkaratha/chain_m70_dm20_cfgRun24_133X_Run2024_test_10172024/Mini/chain_m70_dm20_392_step5_mini.root
p409
aV/store/cmst3/group/softJets/gkaratha/chain_m70_dm20_cfgRun24_133X_Run2024_test_10172024/Mini/chain_m70_dm20_393_step5_mini.root
p410
aV/store/cmst3/group/softJets/gkaratha/chain_m70_dm20_cfgRun24_133X_Run2024_test_10172024/Mini/chain_m70_dm20_394_step5_mini.root
p411
aV/store/cmst3/group/softJets/gkaratha/chain_m70_dm20_cfgRun24_133X_Run2024_test_10172024/Mini/chain_m70_dm20_395_step5_mini.root
p412
aV/store/cmst3/group/softJets/gkaratha/chain_m70_dm20_cfgRun24_133X_Run2024_test_10172024/Mini/chain_m70_dm20_396_step5_mini.root
p413
aV/store/cmst3/group/softJets/gkaratha/chain_m70_dm20_cfgRun24_133X_Run2024_test_10172024/Mini/chain_m70_dm20_397_step5_mini.root
p414
aV/store/cmst3/group/softJets/gkaratha/chain_m70_dm20_cfgRun24_133X_Run2024_test_10172024/Mini/chain_m70_dm20_398_step5_mini.root
p415
aV/store/cmst3/group/softJets/gkaratha/chain_m70_dm20_cfgRun24_133X_Run2024_test_10172024/Mini/chain_m70_dm20_399_step5_mini.root
p416
aV/store/cmst3/group/softJets/gkaratha/chain_m70_dm20_cfgRun24_133X_Run2024_test_10172024/Mini/chain_m70_dm20_39_step5_mini.root
p417
aV/store/cmst3/group/softJets/gkaratha/chain_m70_dm20_cfgRun24_133X_Run2024_test_10172024/Mini/chain_m70_dm20_3_step5_mini.root
p418
aV/store/cmst3/group/softJets/gkaratha/chain_m70_dm20_cfgRun24_133X_Run2024_test_10172024/Mini/chain_m70_dm20_400_step5_mini.root
p419
aV/store/cmst3/group/softJets/gkaratha/chain_m70_dm20_cfgRun24_133X_Run2024_test_10172024/Mini/chain_m70_dm20_401_step5_mini.root
p420
aV/store/cmst3/group/softJets/gkaratha/chain_m70_dm20_cfgRun24_133X_Run2024_test_10172024/Mini/chain_m70_dm20_402_step5_mini.root
p421
aV/store/cmst3/group/softJets/gkaratha/chain_m70_dm20_cfgRun24_133X_Run2024_test_10172024/Mini/chain_m70_dm20_403_step5_mini.root
p422
aV/store/cmst3/group/softJets/gkaratha/chain_m70_dm20_cfgRun24_133X_Run2024_test_10172024/Mini/chain_m70_dm20_404_step5_mini.root
p423
aV/store/cmst3/group/softJets/gkaratha/chain_m70_dm20_cfgRun24_133X_Run2024_test_10172024/Mini/chain_m70_dm20_405_step5_mini.root
p424
aV/store/cmst3/group/softJets/gkaratha/chain_m70_dm20_cfgRun24_133X_Run2024_test_10172024/Mini/chain_m70_dm20_406_step5_mini.root
p425
aV/store/cmst3/group/softJets/gkaratha/chain_m70_dm20_cfgRun24_133X_Run2024_test_10172024/Mini/chain_m70_dm20_407_step5_mini.root
p426
aV/store/cmst3/group/softJets/gkaratha/chain_m70_dm20_cfgRun24_133X_Run2024_test_10172024/Mini/chain_m70_dm20_408_step5_mini.root
p427
aV/store/cmst3/group/softJets/gkaratha/chain_m70_dm20_cfgRun24_133X_Run2024_test_10172024/Mini/chain_m70_dm20_409_step5_mini.root
p428
aV/store/cmst3/group/softJets/gkaratha/chain_m70_dm20_cfgRun24_133X_Run2024_test_10172024/Mini/chain_m70_dm20_40_step5_mini.root
p429
aV/store/cmst3/group/softJets/gkaratha/chain_m70_dm20_cfgRun24_133X_Run2024_test_10172024/Mini/chain_m70_dm20_410_step5_mini.root
p430
aV/store/cmst3/group/softJets/gkaratha/chain_m70_dm20_cfgRun24_133X_Run2024_test_10172024/Mini/chain_m70_dm20_411_step5_mini.root
p431
aV/store/cmst3/group/softJets/gkaratha/chain_m70_dm20_cfgRun24_133X_Run2024_test_10172024/Mini/chain_m70_dm20_412_step5_mini.root
p432
aV/store/cmst3/group/softJets/gkaratha/chain_m70_dm20_cfgRun24_133X_Run2024_test_10172024/Mini/chain_m70_dm20_413_step5_mini.root
p433
aV/store/cmst3/group/softJets/gkaratha/chain_m70_dm20_cfgRun24_133X_Run2024_test_10172024/Mini/chain_m70_dm20_414_step5_mini.root
p434
aV/store/cmst3/group/softJets/gkaratha/chain_m70_dm20_cfgRun24_133X_Run2024_test_10172024/Mini/chain_m70_dm20_415_step5_mini.root
p435
aV/store/cmst3/group/softJets/gkaratha/chain_m70_dm20_cfgRun24_133X_Run2024_test_10172024/Mini/chain_m70_dm20_416_step5_mini.root
p436
aV/store/cmst3/group/softJets/gkaratha/chain_m70_dm20_cfgRun24_133X_Run2024_test_10172024/Mini/chain_m70_dm20_417_step5_mini.root
p437
aV/store/cmst3/group/softJets/gkaratha/chain_m70_dm20_cfgRun24_133X_Run2024_test_10172024/Mini/chain_m70_dm20_418_step5_mini.root
p438
aV/store/cmst3/group/softJets/gkaratha/chain_m70_dm20_cfgRun24_133X_Run2024_test_10172024/Mini/chain_m70_dm20_419_step5_mini.root
p439
aV/store/cmst3/group/softJets/gkaratha/chain_m70_dm20_cfgRun24_133X_Run2024_test_10172024/Mini/chain_m70_dm20_41_step5_mini.root
p440
aV/store/cmst3/group/softJets/gkaratha/chain_m70_dm20_cfgRun24_133X_Run2024_test_10172024/Mini/chain_m70_dm20_420_step5_mini.root
p441
aV/store/cmst3/group/softJets/gkaratha/chain_m70_dm20_cfgRun24_133X_Run2024_test_10172024/Mini/chain_m70_dm20_421_step5_mini.root
p442
aV/store/cmst3/group/softJets/gkaratha/chain_m70_dm20_cfgRun24_133X_Run2024_test_10172024/Mini/chain_m70_dm20_422_step5_mini.root
p443
aV/store/cmst3/group/softJets/gkaratha/chain_m70_dm20_cfgRun24_133X_Run2024_test_10172024/Mini/chain_m70_dm20_423_step5_mini.root
p444
aV/store/cmst3/group/softJets/gkaratha/chain_m70_dm20_cfgRun24_133X_Run2024_test_10172024/Mini/chain_m70_dm20_424_step5_mini.root
p445
aV/store/cmst3/group/softJets/gkaratha/chain_m70_dm20_cfgRun24_133X_Run2024_test_10172024/Mini/chain_m70_dm20_425_step5_mini.root
p446
aV/store/cmst3/group/softJets/gkaratha/chain_m70_dm20_cfgRun24_133X_Run2024_test_10172024/Mini/chain_m70_dm20_426_step5_mini.root
p447
aV/store/cmst3/group/softJets/gkaratha/chain_m70_dm20_cfgRun24_133X_Run2024_test_10172024/Mini/chain_m70_dm20_427_step5_mini.root
p448
aV/store/cmst3/group/softJets/gkaratha/chain_m70_dm20_cfgRun24_133X_Run2024_test_10172024/Mini/chain_m70_dm20_428_step5_mini.root
p449
aV/store/cmst3/group/softJets/gkaratha/chain_m70_dm20_cfgRun24_133X_Run2024_test_10172024/Mini/chain_m70_dm20_429_step5_mini.root
p450
aV/store/cmst3/group/softJets/gkaratha/chain_m70_dm20_cfgRun24_133X_Run2024_test_10172024/Mini/chain_m70_dm20_42_step5_mini.root
p451
aV/store/cmst3/group/softJets/gkaratha/chain_m70_dm20_cfgRun24_133X_Run2024_test_10172024/Mini/chain_m70_dm20_430_step5_mini.root
p452
aV/store/cmst3/group/softJets/gkaratha/chain_m70_dm20_cfgRun24_133X_Run2024_test_10172024/Mini/chain_m70_dm20_431_step5_mini.root
p453
aV/store/cmst3/group/softJets/gkaratha/chain_m70_dm20_cfgRun24_133X_Run2024_test_10172024/Mini/chain_m70_dm20_432_step5_mini.root
p454
aV/store/cmst3/group/softJets/gkaratha/chain_m70_dm20_cfgRun24_133X_Run2024_test_10172024/Mini/chain_m70_dm20_433_step5_mini.root
p455
aV/store/cmst3/group/softJets/gkaratha/chain_m70_dm20_cfgRun24_133X_Run2024_test_10172024/Mini/chain_m70_dm20_434_step5_mini.root
p456
aV/store/cmst3/group/softJets/gkaratha/chain_m70_dm20_cfgRun24_133X_Run2024_test_10172024/Mini/chain_m70_dm20_435_step5_mini.root
p457
aV/store/cmst3/group/softJets/gkaratha/chain_m70_dm20_cfgRun24_133X_Run2024_test_10172024/Mini/chain_m70_dm20_436_step5_mini.root
p458
aV/store/cmst3/group/softJets/gkaratha/chain_m70_dm20_cfgRun24_133X_Run2024_test_10172024/Mini/chain_m70_dm20_437_step5_mini.root
p459
aV/store/cmst3/group/softJets/gkaratha/chain_m70_dm20_cfgRun24_133X_Run2024_test_10172024/Mini/chain_m70_dm20_438_step5_mini.root
p460
aV/store/cmst3/group/softJets/gkaratha/chain_m70_dm20_cfgRun24_133X_Run2024_test_10172024/Mini/chain_m70_dm20_439_step5_mini.root
p461
aV/store/cmst3/group/softJets/gkaratha/chain_m70_dm20_cfgRun24_133X_Run2024_test_10172024/Mini/chain_m70_dm20_43_step5_mini.root
p462
aV/store/cmst3/group/softJets/gkaratha/chain_m70_dm20_cfgRun24_133X_Run2024_test_10172024/Mini/chain_m70_dm20_440_step5_mini.root
p463
aV/store/cmst3/group/softJets/gkaratha/chain_m70_dm20_cfgRun24_133X_Run2024_test_10172024/Mini/chain_m70_dm20_441_step5_mini.root
p464
aV/store/cmst3/group/softJets/gkaratha/chain_m70_dm20_cfgRun24_133X_Run2024_test_10172024/Mini/chain_m70_dm20_442_step5_mini.root
p465
aV/store/cmst3/group/softJets/gkaratha/chain_m70_dm20_cfgRun24_133X_Run2024_test_10172024/Mini/chain_m70_dm20_443_step5_mini.root
p466
aV/store/cmst3/group/softJets/gkaratha/chain_m70_dm20_cfgRun24_133X_Run2024_test_10172024/Mini/chain_m70_dm20_444_step5_mini.root
p467
aV/store/cmst3/group/softJets/gkaratha/chain_m70_dm20_cfgRun24_133X_Run2024_test_10172024/Mini/chain_m70_dm20_445_step5_mini.root
p468
aV/store/cmst3/group/softJets/gkaratha/chain_m70_dm20_cfgRun24_133X_Run2024_test_10172024/Mini/chain_m70_dm20_446_step5_mini.root
p469
aV/store/cmst3/group/softJets/gkaratha/chain_m70_dm20_cfgRun24_133X_Run2024_test_10172024/Mini/chain_m70_dm20_447_step5_mini.root
p470
aV/store/cmst3/group/softJets/gkaratha/chain_m70_dm20_cfgRun24_133X_Run2024_test_10172024/Mini/chain_m70_dm20_448_step5_mini.root
p471
aV/store/cmst3/group/softJets/gkaratha/chain_m70_dm20_cfgRun24_133X_Run2024_test_10172024/Mini/chain_m70_dm20_449_step5_mini.root
p472
aV/store/cmst3/group/softJets/gkaratha/chain_m70_dm20_cfgRun24_133X_Run2024_test_10172024/Mini/chain_m70_dm20_44_step5_mini.root
p473
aV/store/cmst3/group/softJets/gkaratha/chain_m70_dm20_cfgRun24_133X_Run2024_test_10172024/Mini/chain_m70_dm20_450_step5_mini.root
p474
aV/store/cmst3/group/softJets/gkaratha/chain_m70_dm20_cfgRun24_133X_Run2024_test_10172024/Mini/chain_m70_dm20_451_step5_mini.root
p475
aV/store/cmst3/group/softJets/gkaratha/chain_m70_dm20_cfgRun24_133X_Run2024_test_10172024/Mini/chain_m70_dm20_452_step5_mini.root
p476
aV/store/cmst3/group/softJets/gkaratha/chain_m70_dm20_cfgRun24_133X_Run2024_test_10172024/Mini/chain_m70_dm20_453_step5_mini.root
p477
aV/store/cmst3/group/softJets/gkaratha/chain_m70_dm20_cfgRun24_133X_Run2024_test_10172024/Mini/chain_m70_dm20_454_step5_mini.root
p478
aV/store/cmst3/group/softJets/gkaratha/chain_m70_dm20_cfgRun24_133X_Run2024_test_10172024/Mini/chain_m70_dm20_455_step5_mini.root
p479
aV/store/cmst3/group/softJets/gkaratha/chain_m70_dm20_cfgRun24_133X_Run2024_test_10172024/Mini/chain_m70_dm20_456_step5_mini.root
p480
aV/store/cmst3/group/softJets/gkaratha/chain_m70_dm20_cfgRun24_133X_Run2024_test_10172024/Mini/chain_m70_dm20_457_step5_mini.root
p481
aV/store/cmst3/group/softJets/gkaratha/chain_m70_dm20_cfgRun24_133X_Run2024_test_10172024/Mini/chain_m70_dm20_458_step5_mini.root
p482
aV/store/cmst3/group/softJets/gkaratha/chain_m70_dm20_cfgRun24_133X_Run2024_test_10172024/Mini/chain_m70_dm20_459_step5_mini.root
p483
aV/store/cmst3/group/softJets/gkaratha/chain_m70_dm20_cfgRun24_133X_Run2024_test_10172024/Mini/chain_m70_dm20_45_step5_mini.root
p484
aV/store/cmst3/group/softJets/gkaratha/chain_m70_dm20_cfgRun24_133X_Run2024_test_10172024/Mini/chain_m70_dm20_460_step5_mini.root
p485
aV/store/cmst3/group/softJets/gkaratha/chain_m70_dm20_cfgRun24_133X_Run2024_test_10172024/Mini/chain_m70_dm20_461_step5_mini.root
p486
aV/store/cmst3/group/softJets/gkaratha/chain_m70_dm20_cfgRun24_133X_Run2024_test_10172024/Mini/chain_m70_dm20_462_step5_mini.root
p487
aV/store/cmst3/group/softJets/gkaratha/chain_m70_dm20_cfgRun24_133X_Run2024_test_10172024/Mini/chain_m70_dm20_463_step5_mini.root
p488
aV/store/cmst3/group/softJets/gkaratha/chain_m70_dm20_cfgRun24_133X_Run2024_test_10172024/Mini/chain_m70_dm20_464_step5_mini.root
p489
aV/store/cmst3/group/softJets/gkaratha/chain_m70_dm20_cfgRun24_133X_Run2024_test_10172024/Mini/chain_m70_dm20_465_step5_mini.root
p490
aV/store/cmst3/group/softJets/gkaratha/chain_m70_dm20_cfgRun24_133X_Run2024_test_10172024/Mini/chain_m70_dm20_466_step5_mini.root
p491
aV/store/cmst3/group/softJets/gkaratha/chain_m70_dm20_cfgRun24_133X_Run2024_test_10172024/Mini/chain_m70_dm20_467_step5_mini.root
p492
aV/store/cmst3/group/softJets/gkaratha/chain_m70_dm20_cfgRun24_133X_Run2024_test_10172024/Mini/chain_m70_dm20_468_step5_mini.root
p493
aV/store/cmst3/group/softJets/gkaratha/chain_m70_dm20_cfgRun24_133X_Run2024_test_10172024/Mini/chain_m70_dm20_469_step5_mini.root
p494
aV/store/cmst3/group/softJets/gkaratha/chain_m70_dm20_cfgRun24_133X_Run2024_test_10172024/Mini/chain_m70_dm20_46_step5_mini.root
p495
aV/store/cmst3/group/softJets/gkaratha/chain_m70_dm20_cfgRun24_133X_Run2024_test_10172024/Mini/chain_m70_dm20_470_step5_mini.root
p496
aV/store/cmst3/group/softJets/gkaratha/chain_m70_dm20_cfgRun24_133X_Run2024_test_10172024/Mini/chain_m70_dm20_471_step5_mini.root
p497
aV/store/cmst3/group/softJets/gkaratha/chain_m70_dm20_cfgRun24_133X_Run2024_test_10172024/Mini/chain_m70_dm20_472_step5_mini.root
p498
aV/store/cmst3/group/softJets/gkaratha/chain_m70_dm20_cfgRun24_133X_Run2024_test_10172024/Mini/chain_m70_dm20_473_step5_mini.root
p499
aV/store/cmst3/group/softJets/gkaratha/chain_m70_dm20_cfgRun24_133X_Run2024_test_10172024/Mini/chain_m70_dm20_474_step5_mini.root
p500
aV/store/cmst3/group/softJets/gkaratha/chain_m70_dm20_cfgRun24_133X_Run2024_test_10172024/Mini/chain_m70_dm20_475_step5_mini.root
p501
aV/store/cmst3/group/softJets/gkaratha/chain_m70_dm20_cfgRun24_133X_Run2024_test_10172024/Mini/chain_m70_dm20_476_step5_mini.root
p502
aV/store/cmst3/group/softJets/gkaratha/chain_m70_dm20_cfgRun24_133X_Run2024_test_10172024/Mini/chain_m70_dm20_477_step5_mini.root
p503
aV/store/cmst3/group/softJets/gkaratha/chain_m70_dm20_cfgRun24_133X_Run2024_test_10172024/Mini/chain_m70_dm20_478_step5_mini.root
p504
aV/store/cmst3/group/softJets/gkaratha/chain_m70_dm20_cfgRun24_133X_Run2024_test_10172024/Mini/chain_m70_dm20_479_step5_mini.root
p505
aV/store/cmst3/group/softJets/gkaratha/chain_m70_dm20_cfgRun24_133X_Run2024_test_10172024/Mini/chain_m70_dm20_47_step5_mini.root
p506
aV/store/cmst3/group/softJets/gkaratha/chain_m70_dm20_cfgRun24_133X_Run2024_test_10172024/Mini/chain_m70_dm20_480_step5_mini.root
p507
aV/store/cmst3/group/softJets/gkaratha/chain_m70_dm20_cfgRun24_133X_Run2024_test_10172024/Mini/chain_m70_dm20_481_step5_mini.root
p508
aV/store/cmst3/group/softJets/gkaratha/chain_m70_dm20_cfgRun24_133X_Run2024_test_10172024/Mini/chain_m70_dm20_482_step5_mini.root
p509
aV/store/cmst3/group/softJets/gkaratha/chain_m70_dm20_cfgRun24_133X_Run2024_test_10172024/Mini/chain_m70_dm20_483_step5_mini.root
p510
aV/store/cmst3/group/softJets/gkaratha/chain_m70_dm20_cfgRun24_133X_Run2024_test_10172024/Mini/chain_m70_dm20_484_step5_mini.root
p511
aV/store/cmst3/group/softJets/gkaratha/chain_m70_dm20_cfgRun24_133X_Run2024_test_10172024/Mini/chain_m70_dm20_485_step5_mini.root
p512
aV/store/cmst3/group/softJets/gkaratha/chain_m70_dm20_cfgRun24_133X_Run2024_test_10172024/Mini/chain_m70_dm20_486_step5_mini.root
p513
aV/store/cmst3/group/softJets/gkaratha/chain_m70_dm20_cfgRun24_133X_Run2024_test_10172024/Mini/chain_m70_dm20_487_step5_mini.root
p514
aV/store/cmst3/group/softJets/gkaratha/chain_m70_dm20_cfgRun24_133X_Run2024_test_10172024/Mini/chain_m70_dm20_488_step5_mini.root
p515
aV/store/cmst3/group/softJets/gkaratha/chain_m70_dm20_cfgRun24_133X_Run2024_test_10172024/Mini/chain_m70_dm20_489_step5_mini.root
p516
aV/store/cmst3/group/softJets/gkaratha/chain_m70_dm20_cfgRun24_133X_Run2024_test_10172024/Mini/chain_m70_dm20_48_step5_mini.root
p517
aV/store/cmst3/group/softJets/gkaratha/chain_m70_dm20_cfgRun24_133X_Run2024_test_10172024/Mini/chain_m70_dm20_490_step5_mini.root
p518
aV/store/cmst3/group/softJets/gkaratha/chain_m70_dm20_cfgRun24_133X_Run2024_test_10172024/Mini/chain_m70_dm20_491_step5_mini.root
p519
aV/store/cmst3/group/softJets/gkaratha/chain_m70_dm20_cfgRun24_133X_Run2024_test_10172024/Mini/chain_m70_dm20_492_step5_mini.root
p520
aV/store/cmst3/group/softJets/gkaratha/chain_m70_dm20_cfgRun24_133X_Run2024_test_10172024/Mini/chain_m70_dm20_493_step5_mini.root
p521
aV/store/cmst3/group/softJets/gkaratha/chain_m70_dm20_cfgRun24_133X_Run2024_test_10172024/Mini/chain_m70_dm20_494_step5_mini.root
p522
aV/store/cmst3/group/softJets/gkaratha/chain_m70_dm20_cfgRun24_133X_Run2024_test_10172024/Mini/chain_m70_dm20_495_step5_mini.root
p523
aV/store/cmst3/group/softJets/gkaratha/chain_m70_dm20_cfgRun24_133X_Run2024_test_10172024/Mini/chain_m70_dm20_496_step5_mini.root
p524
aV/store/cmst3/group/softJets/gkaratha/chain_m70_dm20_cfgRun24_133X_Run2024_test_10172024/Mini/chain_m70_dm20_497_step5_mini.root
p525
aV/store/cmst3/group/softJets/gkaratha/chain_m70_dm20_cfgRun24_133X_Run2024_test_10172024/Mini/chain_m70_dm20_498_step5_mini.root
p526
aV/store/cmst3/group/softJets/gkaratha/chain_m70_dm20_cfgRun24_133X_Run2024_test_10172024/Mini/chain_m70_dm20_499_step5_mini.root
p527
aV/store/cmst3/group/softJets/gkaratha/chain_m70_dm20_cfgRun24_133X_Run2024_test_10172024/Mini/chain_m70_dm20_49_step5_mini.root
p528
aV/store/cmst3/group/softJets/gkaratha/chain_m70_dm20_cfgRun24_133X_Run2024_test_10172024/Mini/chain_m70_dm20_4_step5_mini.root
p529
aV/store/cmst3/group/softJets/gkaratha/chain_m70_dm20_cfgRun24_133X_Run2024_test_10172024/Mini/chain_m70_dm20_500_step5_mini.root
p530
aV/store/cmst3/group/softJets/gkaratha/chain_m70_dm20_cfgRun24_133X_Run2024_test_10172024/Mini/chain_m70_dm20_501_step5_mini.root
p531
aV/store/cmst3/group/softJets/gkaratha/chain_m70_dm20_cfgRun24_133X_Run2024_test_10172024/Mini/chain_m70_dm20_502_step5_mini.root
p532
aV/store/cmst3/group/softJets/gkaratha/chain_m70_dm20_cfgRun24_133X_Run2024_test_10172024/Mini/chain_m70_dm20_503_step5_mini.root
p533
aV/store/cmst3/group/softJets/gkaratha/chain_m70_dm20_cfgRun24_133X_Run2024_test_10172024/Mini/chain_m70_dm20_504_step5_mini.root
p534
aV/store/cmst3/group/softJets/gkaratha/chain_m70_dm20_cfgRun24_133X_Run2024_test_10172024/Mini/chain_m70_dm20_505_step5_mini.root
p535
aV/store/cmst3/group/softJets/gkaratha/chain_m70_dm20_cfgRun24_133X_Run2024_test_10172024/Mini/chain_m70_dm20_506_step5_mini.root
p536
aV/store/cmst3/group/softJets/gkaratha/chain_m70_dm20_cfgRun24_133X_Run2024_test_10172024/Mini/chain_m70_dm20_507_step5_mini.root
p537
aV/store/cmst3/group/softJets/gkaratha/chain_m70_dm20_cfgRun24_133X_Run2024_test_10172024/Mini/chain_m70_dm20_508_step5_mini.root
p538
aV/store/cmst3/group/softJets/gkaratha/chain_m70_dm20_cfgRun24_133X_Run2024_test_10172024/Mini/chain_m70_dm20_509_step5_mini.root
p539
aV/store/cmst3/group/softJets/gkaratha/chain_m70_dm20_cfgRun24_133X_Run2024_test_10172024/Mini/chain_m70_dm20_50_step5_mini.root
p540
aV/store/cmst3/group/softJets/gkaratha/chain_m70_dm20_cfgRun24_133X_Run2024_test_10172024/Mini/chain_m70_dm20_510_step5_mini.root
p541
aV/store/cmst3/group/softJets/gkaratha/chain_m70_dm20_cfgRun24_133X_Run2024_test_10172024/Mini/chain_m70_dm20_511_step5_mini.root
p542
aV/store/cmst3/group/softJets/gkaratha/chain_m70_dm20_cfgRun24_133X_Run2024_test_10172024/Mini/chain_m70_dm20_512_step5_mini.root
p543
aV/store/cmst3/group/softJets/gkaratha/chain_m70_dm20_cfgRun24_133X_Run2024_test_10172024/Mini/chain_m70_dm20_513_step5_mini.root
p544
aV/store/cmst3/group/softJets/gkaratha/chain_m70_dm20_cfgRun24_133X_Run2024_test_10172024/Mini/chain_m70_dm20_514_step5_mini.root
p545
aV/store/cmst3/group/softJets/gkaratha/chain_m70_dm20_cfgRun24_133X_Run2024_test_10172024/Mini/chain_m70_dm20_515_step5_mini.root
p546
aV/store/cmst3/group/softJets/gkaratha/chain_m70_dm20_cfgRun24_133X_Run2024_test_10172024/Mini/chain_m70_dm20_516_step5_mini.root
p547
aV/store/cmst3/group/softJets/gkaratha/chain_m70_dm20_cfgRun24_133X_Run2024_test_10172024/Mini/chain_m70_dm20_517_step5_mini.root
p548
aV/store/cmst3/group/softJets/gkaratha/chain_m70_dm20_cfgRun24_133X_Run2024_test_10172024/Mini/chain_m70_dm20_518_step5_mini.root
p549
aV/store/cmst3/group/softJets/gkaratha/chain_m70_dm20_cfgRun24_133X_Run2024_test_10172024/Mini/chain_m70_dm20_519_step5_mini.root
p550
aV/store/cmst3/group/softJets/gkaratha/chain_m70_dm20_cfgRun24_133X_Run2024_test_10172024/Mini/chain_m70_dm20_51_step5_mini.root
p551
aV/store/cmst3/group/softJets/gkaratha/chain_m70_dm20_cfgRun24_133X_Run2024_test_10172024/Mini/chain_m70_dm20_520_step5_mini.root
p552
aV/store/cmst3/group/softJets/gkaratha/chain_m70_dm20_cfgRun24_133X_Run2024_test_10172024/Mini/chain_m70_dm20_521_step5_mini.root
p553
aV/store/cmst3/group/softJets/gkaratha/chain_m70_dm20_cfgRun24_133X_Run2024_test_10172024/Mini/chain_m70_dm20_522_step5_mini.root
p554
aV/store/cmst3/group/softJets/gkaratha/chain_m70_dm20_cfgRun24_133X_Run2024_test_10172024/Mini/chain_m70_dm20_523_step5_mini.root
p555
aV/store/cmst3/group/softJets/gkaratha/chain_m70_dm20_cfgRun24_133X_Run2024_test_10172024/Mini/chain_m70_dm20_524_step5_mini.root
p556
aV/store/cmst3/group/softJets/gkaratha/chain_m70_dm20_cfgRun24_133X_Run2024_test_10172024/Mini/chain_m70_dm20_525_step5_mini.root
p557
aV/store/cmst3/group/softJets/gkaratha/chain_m70_dm20_cfgRun24_133X_Run2024_test_10172024/Mini/chain_m70_dm20_526_step5_mini.root
p558
aV/store/cmst3/group/softJets/gkaratha/chain_m70_dm20_cfgRun24_133X_Run2024_test_10172024/Mini/chain_m70_dm20_527_step5_mini.root
p559
aV/store/cmst3/group/softJets/gkaratha/chain_m70_dm20_cfgRun24_133X_Run2024_test_10172024/Mini/chain_m70_dm20_528_step5_mini.root
p560
aV/store/cmst3/group/softJets/gkaratha/chain_m70_dm20_cfgRun24_133X_Run2024_test_10172024/Mini/chain_m70_dm20_529_step5_mini.root
p561
aV/store/cmst3/group/softJets/gkaratha/chain_m70_dm20_cfgRun24_133X_Run2024_test_10172024/Mini/chain_m70_dm20_52_step5_mini.root
p562
aV/store/cmst3/group/softJets/gkaratha/chain_m70_dm20_cfgRun24_133X_Run2024_test_10172024/Mini/chain_m70_dm20_530_step5_mini.root
p563
aV/store/cmst3/group/softJets/gkaratha/chain_m70_dm20_cfgRun24_133X_Run2024_test_10172024/Mini/chain_m70_dm20_531_step5_mini.root
p564
aV/store/cmst3/group/softJets/gkaratha/chain_m70_dm20_cfgRun24_133X_Run2024_test_10172024/Mini/chain_m70_dm20_532_step5_mini.root
p565
aV/store/cmst3/group/softJets/gkaratha/chain_m70_dm20_cfgRun24_133X_Run2024_test_10172024/Mini/chain_m70_dm20_533_step5_mini.root
p566
aV/store/cmst3/group/softJets/gkaratha/chain_m70_dm20_cfgRun24_133X_Run2024_test_10172024/Mini/chain_m70_dm20_534_step5_mini.root
p567
aV/store/cmst3/group/softJets/gkaratha/chain_m70_dm20_cfgRun24_133X_Run2024_test_10172024/Mini/chain_m70_dm20_535_step5_mini.root
p568
aV/store/cmst3/group/softJets/gkaratha/chain_m70_dm20_cfgRun24_133X_Run2024_test_10172024/Mini/chain_m70_dm20_536_step5_mini.root
p569
aV/store/cmst3/group/softJets/gkaratha/chain_m70_dm20_cfgRun24_133X_Run2024_test_10172024/Mini/chain_m70_dm20_537_step5_mini.root
p570
aV/store/cmst3/group/softJets/gkaratha/chain_m70_dm20_cfgRun24_133X_Run2024_test_10172024/Mini/chain_m70_dm20_538_step5_mini.root
p571
aV/store/cmst3/group/softJets/gkaratha/chain_m70_dm20_cfgRun24_133X_Run2024_test_10172024/Mini/chain_m70_dm20_539_step5_mini.root
p572
aV/store/cmst3/group/softJets/gkaratha/chain_m70_dm20_cfgRun24_133X_Run2024_test_10172024/Mini/chain_m70_dm20_53_step5_mini.root
p573
aV/store/cmst3/group/softJets/gkaratha/chain_m70_dm20_cfgRun24_133X_Run2024_test_10172024/Mini/chain_m70_dm20_540_step5_mini.root
p574
aV/store/cmst3/group/softJets/gkaratha/chain_m70_dm20_cfgRun24_133X_Run2024_test_10172024/Mini/chain_m70_dm20_541_step5_mini.root
p575
aV/store/cmst3/group/softJets/gkaratha/chain_m70_dm20_cfgRun24_133X_Run2024_test_10172024/Mini/chain_m70_dm20_542_step5_mini.root
p576
aV/store/cmst3/group/softJets/gkaratha/chain_m70_dm20_cfgRun24_133X_Run2024_test_10172024/Mini/chain_m70_dm20_543_step5_mini.root
p577
aV/store/cmst3/group/softJets/gkaratha/chain_m70_dm20_cfgRun24_133X_Run2024_test_10172024/Mini/chain_m70_dm20_544_step5_mini.root
p578
aV/store/cmst3/group/softJets/gkaratha/chain_m70_dm20_cfgRun24_133X_Run2024_test_10172024/Mini/chain_m70_dm20_545_step5_mini.root
p579
aV/store/cmst3/group/softJets/gkaratha/chain_m70_dm20_cfgRun24_133X_Run2024_test_10172024/Mini/chain_m70_dm20_546_step5_mini.root
p580
aV/store/cmst3/group/softJets/gkaratha/chain_m70_dm20_cfgRun24_133X_Run2024_test_10172024/Mini/chain_m70_dm20_547_step5_mini.root
p581
aV/store/cmst3/group/softJets/gkaratha/chain_m70_dm20_cfgRun24_133X_Run2024_test_10172024/Mini/chain_m70_dm20_548_step5_mini.root
p582
aV/store/cmst3/group/softJets/gkaratha/chain_m70_dm20_cfgRun24_133X_Run2024_test_10172024/Mini/chain_m70_dm20_549_step5_mini.root
p583
aV/store/cmst3/group/softJets/gkaratha/chain_m70_dm20_cfgRun24_133X_Run2024_test_10172024/Mini/chain_m70_dm20_54_step5_mini.root
p584
aV/store/cmst3/group/softJets/gkaratha/chain_m70_dm20_cfgRun24_133X_Run2024_test_10172024/Mini/chain_m70_dm20_550_step5_mini.root
p585
aV/store/cmst3/group/softJets/gkaratha/chain_m70_dm20_cfgRun24_133X_Run2024_test_10172024/Mini/chain_m70_dm20_551_step5_mini.root
p586
aV/store/cmst3/group/softJets/gkaratha/chain_m70_dm20_cfgRun24_133X_Run2024_test_10172024/Mini/chain_m70_dm20_552_step5_mini.root
p587
aV/store/cmst3/group/softJets/gkaratha/chain_m70_dm20_cfgRun24_133X_Run2024_test_10172024/Mini/chain_m70_dm20_553_step5_mini.root
p588
aV/store/cmst3/group/softJets/gkaratha/chain_m70_dm20_cfgRun24_133X_Run2024_test_10172024/Mini/chain_m70_dm20_554_step5_mini.root
p589
aV/store/cmst3/group/softJets/gkaratha/chain_m70_dm20_cfgRun24_133X_Run2024_test_10172024/Mini/chain_m70_dm20_555_step5_mini.root
p590
aV/store/cmst3/group/softJets/gkaratha/chain_m70_dm20_cfgRun24_133X_Run2024_test_10172024/Mini/chain_m70_dm20_556_step5_mini.root
p591
aV/store/cmst3/group/softJets/gkaratha/chain_m70_dm20_cfgRun24_133X_Run2024_test_10172024/Mini/chain_m70_dm20_557_step5_mini.root
p592
aV/store/cmst3/group/softJets/gkaratha/chain_m70_dm20_cfgRun24_133X_Run2024_test_10172024/Mini/chain_m70_dm20_558_step5_mini.root
p593
aV/store/cmst3/group/softJets/gkaratha/chain_m70_dm20_cfgRun24_133X_Run2024_test_10172024/Mini/chain_m70_dm20_559_step5_mini.root
p594
aV/store/cmst3/group/softJets/gkaratha/chain_m70_dm20_cfgRun24_133X_Run2024_test_10172024/Mini/chain_m70_dm20_55_step5_mini.root
p595
aV/store/cmst3/group/softJets/gkaratha/chain_m70_dm20_cfgRun24_133X_Run2024_test_10172024/Mini/chain_m70_dm20_560_step5_mini.root
p596
aV/store/cmst3/group/softJets/gkaratha/chain_m70_dm20_cfgRun24_133X_Run2024_test_10172024/Mini/chain_m70_dm20_561_step5_mini.root
p597
aV/store/cmst3/group/softJets/gkaratha/chain_m70_dm20_cfgRun24_133X_Run2024_test_10172024/Mini/chain_m70_dm20_562_step5_mini.root
p598
aV/store/cmst3/group/softJets/gkaratha/chain_m70_dm20_cfgRun24_133X_Run2024_test_10172024/Mini/chain_m70_dm20_563_step5_mini.root
p599
aV/store/cmst3/group/softJets/gkaratha/chain_m70_dm20_cfgRun24_133X_Run2024_test_10172024/Mini/chain_m70_dm20_564_step5_mini.root
p600
aV/store/cmst3/group/softJets/gkaratha/chain_m70_dm20_cfgRun24_133X_Run2024_test_10172024/Mini/chain_m70_dm20_565_step5_mini.root
p601
aV/store/cmst3/group/softJets/gkaratha/chain_m70_dm20_cfgRun24_133X_Run2024_test_10172024/Mini/chain_m70_dm20_566_step5_mini.root
p602
aV/store/cmst3/group/softJets/gkaratha/chain_m70_dm20_cfgRun24_133X_Run2024_test_10172024/Mini/chain_m70_dm20_567_step5_mini.root
p603
aV/store/cmst3/group/softJets/gkaratha/chain_m70_dm20_cfgRun24_133X_Run2024_test_10172024/Mini/chain_m70_dm20_568_step5_mini.root
p604
aV/store/cmst3/group/softJets/gkaratha/chain_m70_dm20_cfgRun24_133X_Run2024_test_10172024/Mini/chain_m70_dm20_569_step5_mini.root
p605
aV/store/cmst3/group/softJets/gkaratha/chain_m70_dm20_cfgRun24_133X_Run2024_test_10172024/Mini/chain_m70_dm20_56_step5_mini.root
p606
aV/store/cmst3/group/softJets/gkaratha/chain_m70_dm20_cfgRun24_133X_Run2024_test_10172024/Mini/chain_m70_dm20_570_step5_mini.root
p607
aV/store/cmst3/group/softJets/gkaratha/chain_m70_dm20_cfgRun24_133X_Run2024_test_10172024/Mini/chain_m70_dm20_571_step5_mini.root
p608
aV/store/cmst3/group/softJets/gkaratha/chain_m70_dm20_cfgRun24_133X_Run2024_test_10172024/Mini/chain_m70_dm20_572_step5_mini.root
p609
aV/store/cmst3/group/softJets/gkaratha/chain_m70_dm20_cfgRun24_133X_Run2024_test_10172024/Mini/chain_m70_dm20_573_step5_mini.root
p610
aV/store/cmst3/group/softJets/gkaratha/chain_m70_dm20_cfgRun24_133X_Run2024_test_10172024/Mini/chain_m70_dm20_574_step5_mini.root
p611
aV/store/cmst3/group/softJets/gkaratha/chain_m70_dm20_cfgRun24_133X_Run2024_test_10172024/Mini/chain_m70_dm20_575_step5_mini.root
p612
aV/store/cmst3/group/softJets/gkaratha/chain_m70_dm20_cfgRun24_133X_Run2024_test_10172024/Mini/chain_m70_dm20_576_step5_mini.root
p613
aV/store/cmst3/group/softJets/gkaratha/chain_m70_dm20_cfgRun24_133X_Run2024_test_10172024/Mini/chain_m70_dm20_577_step5_mini.root
p614
aV/store/cmst3/group/softJets/gkaratha/chain_m70_dm20_cfgRun24_133X_Run2024_test_10172024/Mini/chain_m70_dm20_578_step5_mini.root
p615
aV/store/cmst3/group/softJets/gkaratha/chain_m70_dm20_cfgRun24_133X_Run2024_test_10172024/Mini/chain_m70_dm20_579_step5_mini.root
p616
aV/store/cmst3/group/softJets/gkaratha/chain_m70_dm20_cfgRun24_133X_Run2024_test_10172024/Mini/chain_m70_dm20_57_step5_mini.root
p617
aV/store/cmst3/group/softJets/gkaratha/chain_m70_dm20_cfgRun24_133X_Run2024_test_10172024/Mini/chain_m70_dm20_580_step5_mini.root
p618
aV/store/cmst3/group/softJets/gkaratha/chain_m70_dm20_cfgRun24_133X_Run2024_test_10172024/Mini/chain_m70_dm20_581_step5_mini.root
p619
aV/store/cmst3/group/softJets/gkaratha/chain_m70_dm20_cfgRun24_133X_Run2024_test_10172024/Mini/chain_m70_dm20_582_step5_mini.root
p620
aV/store/cmst3/group/softJets/gkaratha/chain_m70_dm20_cfgRun24_133X_Run2024_test_10172024/Mini/chain_m70_dm20_583_step5_mini.root
p621
aV/store/cmst3/group/softJets/gkaratha/chain_m70_dm20_cfgRun24_133X_Run2024_test_10172024/Mini/chain_m70_dm20_584_step5_mini.root
p622
aV/store/cmst3/group/softJets/gkaratha/chain_m70_dm20_cfgRun24_133X_Run2024_test_10172024/Mini/chain_m70_dm20_585_step5_mini.root
p623
aV/store/cmst3/group/softJets/gkaratha/chain_m70_dm20_cfgRun24_133X_Run2024_test_10172024/Mini/chain_m70_dm20_586_step5_mini.root
p624
aV/store/cmst3/group/softJets/gkaratha/chain_m70_dm20_cfgRun24_133X_Run2024_test_10172024/Mini/chain_m70_dm20_587_step5_mini.root
p625
aV/store/cmst3/group/softJets/gkaratha/chain_m70_dm20_cfgRun24_133X_Run2024_test_10172024/Mini/chain_m70_dm20_588_step5_mini.root
p626
aV/store/cmst3/group/softJets/gkaratha/chain_m70_dm20_cfgRun24_133X_Run2024_test_10172024/Mini/chain_m70_dm20_589_step5_mini.root
p627
aV/store/cmst3/group/softJets/gkaratha/chain_m70_dm20_cfgRun24_133X_Run2024_test_10172024/Mini/chain_m70_dm20_58_step5_mini.root
p628
aV/store/cmst3/group/softJets/gkaratha/chain_m70_dm20_cfgRun24_133X_Run2024_test_10172024/Mini/chain_m70_dm20_590_step5_mini.root
p629
aV/store/cmst3/group/softJets/gkaratha/chain_m70_dm20_cfgRun24_133X_Run2024_test_10172024/Mini/chain_m70_dm20_591_step5_mini.root
p630
aV/store/cmst3/group/softJets/gkaratha/chain_m70_dm20_cfgRun24_133X_Run2024_test_10172024/Mini/chain_m70_dm20_592_step5_mini.root
p631
aV/store/cmst3/group/softJets/gkaratha/chain_m70_dm20_cfgRun24_133X_Run2024_test_10172024/Mini/chain_m70_dm20_593_step5_mini.root
p632
aV/store/cmst3/group/softJets/gkaratha/chain_m70_dm20_cfgRun24_133X_Run2024_test_10172024/Mini/chain_m70_dm20_594_step5_mini.root
p633
aV/store/cmst3/group/softJets/gkaratha/chain_m70_dm20_cfgRun24_133X_Run2024_test_10172024/Mini/chain_m70_dm20_595_step5_mini.root
p634
aV/store/cmst3/group/softJets/gkaratha/chain_m70_dm20_cfgRun24_133X_Run2024_test_10172024/Mini/chain_m70_dm20_596_step5_mini.root
p635
aV/store/cmst3/group/softJets/gkaratha/chain_m70_dm20_cfgRun24_133X_Run2024_test_10172024/Mini/chain_m70_dm20_597_step5_mini.root
p636
aV/store/cmst3/group/softJets/gkaratha/chain_m70_dm20_cfgRun24_133X_Run2024_test_10172024/Mini/chain_m70_dm20_598_step5_mini.root
p637
aV/store/cmst3/group/softJets/gkaratha/chain_m70_dm20_cfgRun24_133X_Run2024_test_10172024/Mini/chain_m70_dm20_599_step5_mini.root
p638
aV/store/cmst3/group/softJets/gkaratha/chain_m70_dm20_cfgRun24_133X_Run2024_test_10172024/Mini/chain_m70_dm20_59_step5_mini.root
p639
aV/store/cmst3/group/softJets/gkaratha/chain_m70_dm20_cfgRun24_133X_Run2024_test_10172024/Mini/chain_m70_dm20_5_step5_mini.root
p640
aV/store/cmst3/group/softJets/gkaratha/chain_m70_dm20_cfgRun24_133X_Run2024_test_10172024/Mini/chain_m70_dm20_600_step5_mini.root
p641
aV/store/cmst3/group/softJets/gkaratha/chain_m70_dm20_cfgRun24_133X_Run2024_test_10172024/Mini/chain_m70_dm20_601_step5_mini.root
p642
aV/store/cmst3/group/softJets/gkaratha/chain_m70_dm20_cfgRun24_133X_Run2024_test_10172024/Mini/chain_m70_dm20_602_step5_mini.root
p643
aV/store/cmst3/group/softJets/gkaratha/chain_m70_dm20_cfgRun24_133X_Run2024_test_10172024/Mini/chain_m70_dm20_603_step5_mini.root
p644
aV/store/cmst3/group/softJets/gkaratha/chain_m70_dm20_cfgRun24_133X_Run2024_test_10172024/Mini/chain_m70_dm20_604_step5_mini.root
p645
aV/store/cmst3/group/softJets/gkaratha/chain_m70_dm20_cfgRun24_133X_Run2024_test_10172024/Mini/chain_m70_dm20_605_step5_mini.root
p646
aV/store/cmst3/group/softJets/gkaratha/chain_m70_dm20_cfgRun24_133X_Run2024_test_10172024/Mini/chain_m70_dm20_606_step5_mini.root
p647
aV/store/cmst3/group/softJets/gkaratha/chain_m70_dm20_cfgRun24_133X_Run2024_test_10172024/Mini/chain_m70_dm20_607_step5_mini.root
p648
aV/store/cmst3/group/softJets/gkaratha/chain_m70_dm20_cfgRun24_133X_Run2024_test_10172024/Mini/chain_m70_dm20_608_step5_mini.root
p649
aV/store/cmst3/group/softJets/gkaratha/chain_m70_dm20_cfgRun24_133X_Run2024_test_10172024/Mini/chain_m70_dm20_609_step5_mini.root
p650
aV/store/cmst3/group/softJets/gkaratha/chain_m70_dm20_cfgRun24_133X_Run2024_test_10172024/Mini/chain_m70_dm20_60_step5_mini.root
p651
aV/store/cmst3/group/softJets/gkaratha/chain_m70_dm20_cfgRun24_133X_Run2024_test_10172024/Mini/chain_m70_dm20_610_step5_mini.root
p652
aV/store/cmst3/group/softJets/gkaratha/chain_m70_dm20_cfgRun24_133X_Run2024_test_10172024/Mini/chain_m70_dm20_611_step5_mini.root
p653
aV/store/cmst3/group/softJets/gkaratha/chain_m70_dm20_cfgRun24_133X_Run2024_test_10172024/Mini/chain_m70_dm20_612_step5_mini.root
p654
aV/store/cmst3/group/softJets/gkaratha/chain_m70_dm20_cfgRun24_133X_Run2024_test_10172024/Mini/chain_m70_dm20_613_step5_mini.root
p655
aV/store/cmst3/group/softJets/gkaratha/chain_m70_dm20_cfgRun24_133X_Run2024_test_10172024/Mini/chain_m70_dm20_614_step5_mini.root
p656
aV/store/cmst3/group/softJets/gkaratha/chain_m70_dm20_cfgRun24_133X_Run2024_test_10172024/Mini/chain_m70_dm20_615_step5_mini.root
p657
aV/store/cmst3/group/softJets/gkaratha/chain_m70_dm20_cfgRun24_133X_Run2024_test_10172024/Mini/chain_m70_dm20_616_step5_mini.root
p658
aV/store/cmst3/group/softJets/gkaratha/chain_m70_dm20_cfgRun24_133X_Run2024_test_10172024/Mini/chain_m70_dm20_617_step5_mini.root
p659
aV/store/cmst3/group/softJets/gkaratha/chain_m70_dm20_cfgRun24_133X_Run2024_test_10172024/Mini/chain_m70_dm20_618_step5_mini.root
p660
aV/store/cmst3/group/softJets/gkaratha/chain_m70_dm20_cfgRun24_133X_Run2024_test_10172024/Mini/chain_m70_dm20_619_step5_mini.root
p661
aV/store/cmst3/group/softJets/gkaratha/chain_m70_dm20_cfgRun24_133X_Run2024_test_10172024/Mini/chain_m70_dm20_61_step5_mini.root
p662
aV/store/cmst3/group/softJets/gkaratha/chain_m70_dm20_cfgRun24_133X_Run2024_test_10172024/Mini/chain_m70_dm20_620_step5_mini.root
p663
aV/store/cmst3/group/softJets/gkaratha/chain_m70_dm20_cfgRun24_133X_Run2024_test_10172024/Mini/chain_m70_dm20_621_step5_mini.root
p664
aV/store/cmst3/group/softJets/gkaratha/chain_m70_dm20_cfgRun24_133X_Run2024_test_10172024/Mini/chain_m70_dm20_622_step5_mini.root
p665
aV/store/cmst3/group/softJets/gkaratha/chain_m70_dm20_cfgRun24_133X_Run2024_test_10172024/Mini/chain_m70_dm20_623_step5_mini.root
p666
aV/store/cmst3/group/softJets/gkaratha/chain_m70_dm20_cfgRun24_133X_Run2024_test_10172024/Mini/chain_m70_dm20_624_step5_mini.root
p667
aV/store/cmst3/group/softJets/gkaratha/chain_m70_dm20_cfgRun24_133X_Run2024_test_10172024/Mini/chain_m70_dm20_625_step5_mini.root
p668
aV/store/cmst3/group/softJets/gkaratha/chain_m70_dm20_cfgRun24_133X_Run2024_test_10172024/Mini/chain_m70_dm20_626_step5_mini.root
p669
aV/store/cmst3/group/softJets/gkaratha/chain_m70_dm20_cfgRun24_133X_Run2024_test_10172024/Mini/chain_m70_dm20_627_step5_mini.root
p670
aV/store/cmst3/group/softJets/gkaratha/chain_m70_dm20_cfgRun24_133X_Run2024_test_10172024/Mini/chain_m70_dm20_628_step5_mini.root
p671
aV/store/cmst3/group/softJets/gkaratha/chain_m70_dm20_cfgRun24_133X_Run2024_test_10172024/Mini/chain_m70_dm20_629_step5_mini.root
p672
aV/store/cmst3/group/softJets/gkaratha/chain_m70_dm20_cfgRun24_133X_Run2024_test_10172024/Mini/chain_m70_dm20_62_step5_mini.root
p673
aV/store/cmst3/group/softJets/gkaratha/chain_m70_dm20_cfgRun24_133X_Run2024_test_10172024/Mini/chain_m70_dm20_630_step5_mini.root
p674
aV/store/cmst3/group/softJets/gkaratha/chain_m70_dm20_cfgRun24_133X_Run2024_test_10172024/Mini/chain_m70_dm20_631_step5_mini.root
p675
aV/store/cmst3/group/softJets/gkaratha/chain_m70_dm20_cfgRun24_133X_Run2024_test_10172024/Mini/chain_m70_dm20_632_step5_mini.root
p676
aV/store/cmst3/group/softJets/gkaratha/chain_m70_dm20_cfgRun24_133X_Run2024_test_10172024/Mini/chain_m70_dm20_633_step5_mini.root
p677
aV/store/cmst3/group/softJets/gkaratha/chain_m70_dm20_cfgRun24_133X_Run2024_test_10172024/Mini/chain_m70_dm20_634_step5_mini.root
p678
aV/store/cmst3/group/softJets/gkaratha/chain_m70_dm20_cfgRun24_133X_Run2024_test_10172024/Mini/chain_m70_dm20_635_step5_mini.root
p679
aV/store/cmst3/group/softJets/gkaratha/chain_m70_dm20_cfgRun24_133X_Run2024_test_10172024/Mini/chain_m70_dm20_636_step5_mini.root
p680
aV/store/cmst3/group/softJets/gkaratha/chain_m70_dm20_cfgRun24_133X_Run2024_test_10172024/Mini/chain_m70_dm20_637_step5_mini.root
p681
aV/store/cmst3/group/softJets/gkaratha/chain_m70_dm20_cfgRun24_133X_Run2024_test_10172024/Mini/chain_m70_dm20_638_step5_mini.root
p682
aV/store/cmst3/group/softJets/gkaratha/chain_m70_dm20_cfgRun24_133X_Run2024_test_10172024/Mini/chain_m70_dm20_639_step5_mini.root
p683
aV/store/cmst3/group/softJets/gkaratha/chain_m70_dm20_cfgRun24_133X_Run2024_test_10172024/Mini/chain_m70_dm20_63_step5_mini.root
p684
aV/store/cmst3/group/softJets/gkaratha/chain_m70_dm20_cfgRun24_133X_Run2024_test_10172024/Mini/chain_m70_dm20_640_step5_mini.root
p685
aV/store/cmst3/group/softJets/gkaratha/chain_m70_dm20_cfgRun24_133X_Run2024_test_10172024/Mini/chain_m70_dm20_641_step5_mini.root
p686
aV/store/cmst3/group/softJets/gkaratha/chain_m70_dm20_cfgRun24_133X_Run2024_test_10172024/Mini/chain_m70_dm20_642_step5_mini.root
p687
aV/store/cmst3/group/softJets/gkaratha/chain_m70_dm20_cfgRun24_133X_Run2024_test_10172024/Mini/chain_m70_dm20_643_step5_mini.root
p688
aV/store/cmst3/group/softJets/gkaratha/chain_m70_dm20_cfgRun24_133X_Run2024_test_10172024/Mini/chain_m70_dm20_644_step5_mini.root
p689
aV/store/cmst3/group/softJets/gkaratha/chain_m70_dm20_cfgRun24_133X_Run2024_test_10172024/Mini/chain_m70_dm20_645_step5_mini.root
p690
aV/store/cmst3/group/softJets/gkaratha/chain_m70_dm20_cfgRun24_133X_Run2024_test_10172024/Mini/chain_m70_dm20_646_step5_mini.root
p691
aV/store/cmst3/group/softJets/gkaratha/chain_m70_dm20_cfgRun24_133X_Run2024_test_10172024/Mini/chain_m70_dm20_647_step5_mini.root
p692
aV/store/cmst3/group/softJets/gkaratha/chain_m70_dm20_cfgRun24_133X_Run2024_test_10172024/Mini/chain_m70_dm20_648_step5_mini.root
p693
aV/store/cmst3/group/softJets/gkaratha/chain_m70_dm20_cfgRun24_133X_Run2024_test_10172024/Mini/chain_m70_dm20_649_step5_mini.root
p694
aV/store/cmst3/group/softJets/gkaratha/chain_m70_dm20_cfgRun24_133X_Run2024_test_10172024/Mini/chain_m70_dm20_64_step5_mini.root
p695
aV/store/cmst3/group/softJets/gkaratha/chain_m70_dm20_cfgRun24_133X_Run2024_test_10172024/Mini/chain_m70_dm20_650_step5_mini.root
p696
aV/store/cmst3/group/softJets/gkaratha/chain_m70_dm20_cfgRun24_133X_Run2024_test_10172024/Mini/chain_m70_dm20_651_step5_mini.root
p697
aV/store/cmst3/group/softJets/gkaratha/chain_m70_dm20_cfgRun24_133X_Run2024_test_10172024/Mini/chain_m70_dm20_652_step5_mini.root
p698
aV/store/cmst3/group/softJets/gkaratha/chain_m70_dm20_cfgRun24_133X_Run2024_test_10172024/Mini/chain_m70_dm20_653_step5_mini.root
p699
aV/store/cmst3/group/softJets/gkaratha/chain_m70_dm20_cfgRun24_133X_Run2024_test_10172024/Mini/chain_m70_dm20_654_step5_mini.root
p700
aV/store/cmst3/group/softJets/gkaratha/chain_m70_dm20_cfgRun24_133X_Run2024_test_10172024/Mini/chain_m70_dm20_655_step5_mini.root
p701
aV/store/cmst3/group/softJets/gkaratha/chain_m70_dm20_cfgRun24_133X_Run2024_test_10172024/Mini/chain_m70_dm20_656_step5_mini.root
p702
aV/store/cmst3/group/softJets/gkaratha/chain_m70_dm20_cfgRun24_133X_Run2024_test_10172024/Mini/chain_m70_dm20_657_step5_mini.root
p703
aV/store/cmst3/group/softJets/gkaratha/chain_m70_dm20_cfgRun24_133X_Run2024_test_10172024/Mini/chain_m70_dm20_658_step5_mini.root
p704
aV/store/cmst3/group/softJets/gkaratha/chain_m70_dm20_cfgRun24_133X_Run2024_test_10172024/Mini/chain_m70_dm20_659_step5_mini.root
p705
aV/store/cmst3/group/softJets/gkaratha/chain_m70_dm20_cfgRun24_133X_Run2024_test_10172024/Mini/chain_m70_dm20_65_step5_mini.root
p706
aV/store/cmst3/group/softJets/gkaratha/chain_m70_dm20_cfgRun24_133X_Run2024_test_10172024/Mini/chain_m70_dm20_660_step5_mini.root
p707
aV/store/cmst3/group/softJets/gkaratha/chain_m70_dm20_cfgRun24_133X_Run2024_test_10172024/Mini/chain_m70_dm20_661_step5_mini.root
p708
aV/store/cmst3/group/softJets/gkaratha/chain_m70_dm20_cfgRun24_133X_Run2024_test_10172024/Mini/chain_m70_dm20_662_step5_mini.root
p709
aV/store/cmst3/group/softJets/gkaratha/chain_m70_dm20_cfgRun24_133X_Run2024_test_10172024/Mini/chain_m70_dm20_663_step5_mini.root
p710
aV/store/cmst3/group/softJets/gkaratha/chain_m70_dm20_cfgRun24_133X_Run2024_test_10172024/Mini/chain_m70_dm20_664_step5_mini.root
p711
aV/store/cmst3/group/softJets/gkaratha/chain_m70_dm20_cfgRun24_133X_Run2024_test_10172024/Mini/chain_m70_dm20_665_step5_mini.root
p712
aV/store/cmst3/group/softJets/gkaratha/chain_m70_dm20_cfgRun24_133X_Run2024_test_10172024/Mini/chain_m70_dm20_666_step5_mini.root
p713
aV/store/cmst3/group/softJets/gkaratha/chain_m70_dm20_cfgRun24_133X_Run2024_test_10172024/Mini/chain_m70_dm20_667_step5_mini.root
p714
aV/store/cmst3/group/softJets/gkaratha/chain_m70_dm20_cfgRun24_133X_Run2024_test_10172024/Mini/chain_m70_dm20_668_step5_mini.root
p715
aV/store/cmst3/group/softJets/gkaratha/chain_m70_dm20_cfgRun24_133X_Run2024_test_10172024/Mini/chain_m70_dm20_669_step5_mini.root
p716
aV/store/cmst3/group/softJets/gkaratha/chain_m70_dm20_cfgRun24_133X_Run2024_test_10172024/Mini/chain_m70_dm20_66_step5_mini.root
p717
aV/store/cmst3/group/softJets/gkaratha/chain_m70_dm20_cfgRun24_133X_Run2024_test_10172024/Mini/chain_m70_dm20_670_step5_mini.root
p718
aV/store/cmst3/group/softJets/gkaratha/chain_m70_dm20_cfgRun24_133X_Run2024_test_10172024/Mini/chain_m70_dm20_671_step5_mini.root
p719
aV/store/cmst3/group/softJets/gkaratha/chain_m70_dm20_cfgRun24_133X_Run2024_test_10172024/Mini/chain_m70_dm20_672_step5_mini.root
p720
aV/store/cmst3/group/softJets/gkaratha/chain_m70_dm20_cfgRun24_133X_Run2024_test_10172024/Mini/chain_m70_dm20_673_step5_mini.root
p721
aV/store/cmst3/group/softJets/gkaratha/chain_m70_dm20_cfgRun24_133X_Run2024_test_10172024/Mini/chain_m70_dm20_674_step5_mini.root
p722
aV/store/cmst3/group/softJets/gkaratha/chain_m70_dm20_cfgRun24_133X_Run2024_test_10172024/Mini/chain_m70_dm20_675_step5_mini.root
p723
aV/store/cmst3/group/softJets/gkaratha/chain_m70_dm20_cfgRun24_133X_Run2024_test_10172024/Mini/chain_m70_dm20_676_step5_mini.root
p724
aV/store/cmst3/group/softJets/gkaratha/chain_m70_dm20_cfgRun24_133X_Run2024_test_10172024/Mini/chain_m70_dm20_677_step5_mini.root
p725
aV/store/cmst3/group/softJets/gkaratha/chain_m70_dm20_cfgRun24_133X_Run2024_test_10172024/Mini/chain_m70_dm20_678_step5_mini.root
p726
aV/store/cmst3/group/softJets/gkaratha/chain_m70_dm20_cfgRun24_133X_Run2024_test_10172024/Mini/chain_m70_dm20_679_step5_mini.root
p727
aV/store/cmst3/group/softJets/gkaratha/chain_m70_dm20_cfgRun24_133X_Run2024_test_10172024/Mini/chain_m70_dm20_67_step5_mini.root
p728
aV/store/cmst3/group/softJets/gkaratha/chain_m70_dm20_cfgRun24_133X_Run2024_test_10172024/Mini/chain_m70_dm20_680_step5_mini.root
p729
aV/store/cmst3/group/softJets/gkaratha/chain_m70_dm20_cfgRun24_133X_Run2024_test_10172024/Mini/chain_m70_dm20_681_step5_mini.root
p730
aV/store/cmst3/group/softJets/gkaratha/chain_m70_dm20_cfgRun24_133X_Run2024_test_10172024/Mini/chain_m70_dm20_682_step5_mini.root
p731
aV/store/cmst3/group/softJets/gkaratha/chain_m70_dm20_cfgRun24_133X_Run2024_test_10172024/Mini/chain_m70_dm20_683_step5_mini.root
p732
aV/store/cmst3/group/softJets/gkaratha/chain_m70_dm20_cfgRun24_133X_Run2024_test_10172024/Mini/chain_m70_dm20_684_step5_mini.root
p733
aV/store/cmst3/group/softJets/gkaratha/chain_m70_dm20_cfgRun24_133X_Run2024_test_10172024/Mini/chain_m70_dm20_685_step5_mini.root
p734
aV/store/cmst3/group/softJets/gkaratha/chain_m70_dm20_cfgRun24_133X_Run2024_test_10172024/Mini/chain_m70_dm20_686_step5_mini.root
p735
aV/store/cmst3/group/softJets/gkaratha/chain_m70_dm20_cfgRun24_133X_Run2024_test_10172024/Mini/chain_m70_dm20_687_step5_mini.root
p736
aV/store/cmst3/group/softJets/gkaratha/chain_m70_dm20_cfgRun24_133X_Run2024_test_10172024/Mini/chain_m70_dm20_688_step5_mini.root
p737
aV/store/cmst3/group/softJets/gkaratha/chain_m70_dm20_cfgRun24_133X_Run2024_test_10172024/Mini/chain_m70_dm20_689_step5_mini.root
p738
aV/store/cmst3/group/softJets/gkaratha/chain_m70_dm20_cfgRun24_133X_Run2024_test_10172024/Mini/chain_m70_dm20_68_step5_mini.root
p739
aV/store/cmst3/group/softJets/gkaratha/chain_m70_dm20_cfgRun24_133X_Run2024_test_10172024/Mini/chain_m70_dm20_690_step5_mini.root
p740
aV/store/cmst3/group/softJets/gkaratha/chain_m70_dm20_cfgRun24_133X_Run2024_test_10172024/Mini/chain_m70_dm20_691_step5_mini.root
p741
aV/store/cmst3/group/softJets/gkaratha/chain_m70_dm20_cfgRun24_133X_Run2024_test_10172024/Mini/chain_m70_dm20_692_step5_mini.root
p742
aV/store/cmst3/group/softJets/gkaratha/chain_m70_dm20_cfgRun24_133X_Run2024_test_10172024/Mini/chain_m70_dm20_693_step5_mini.root
p743
aV/store/cmst3/group/softJets/gkaratha/chain_m70_dm20_cfgRun24_133X_Run2024_test_10172024/Mini/chain_m70_dm20_694_step5_mini.root
p744
aV/store/cmst3/group/softJets/gkaratha/chain_m70_dm20_cfgRun24_133X_Run2024_test_10172024/Mini/chain_m70_dm20_695_step5_mini.root
p745
aV/store/cmst3/group/softJets/gkaratha/chain_m70_dm20_cfgRun24_133X_Run2024_test_10172024/Mini/chain_m70_dm20_696_step5_mini.root
p746
aV/store/cmst3/group/softJets/gkaratha/chain_m70_dm20_cfgRun24_133X_Run2024_test_10172024/Mini/chain_m70_dm20_697_step5_mini.root
p747
aV/store/cmst3/group/softJets/gkaratha/chain_m70_dm20_cfgRun24_133X_Run2024_test_10172024/Mini/chain_m70_dm20_698_step5_mini.root
p748
aV/store/cmst3/group/softJets/gkaratha/chain_m70_dm20_cfgRun24_133X_Run2024_test_10172024/Mini/chain_m70_dm20_699_step5_mini.root
p749
aV/store/cmst3/group/softJets/gkaratha/chain_m70_dm20_cfgRun24_133X_Run2024_test_10172024/Mini/chain_m70_dm20_69_step5_mini.root
p750
aV/store/cmst3/group/softJets/gkaratha/chain_m70_dm20_cfgRun24_133X_Run2024_test_10172024/Mini/chain_m70_dm20_6_step5_mini.root
p751
aV/store/cmst3/group/softJets/gkaratha/chain_m70_dm20_cfgRun24_133X_Run2024_test_10172024/Mini/chain_m70_dm20_700_step5_mini.root
p752
aV/store/cmst3/group/softJets/gkaratha/chain_m70_dm20_cfgRun24_133X_Run2024_test_10172024/Mini/chain_m70_dm20_701_step5_mini.root
p753
aV/store/cmst3/group/softJets/gkaratha/chain_m70_dm20_cfgRun24_133X_Run2024_test_10172024/Mini/chain_m70_dm20_702_step5_mini.root
p754
aV/store/cmst3/group/softJets/gkaratha/chain_m70_dm20_cfgRun24_133X_Run2024_test_10172024/Mini/chain_m70_dm20_703_step5_mini.root
p755
aV/store/cmst3/group/softJets/gkaratha/chain_m70_dm20_cfgRun24_133X_Run2024_test_10172024/Mini/chain_m70_dm20_704_step5_mini.root
p756
aV/store/cmst3/group/softJets/gkaratha/chain_m70_dm20_cfgRun24_133X_Run2024_test_10172024/Mini/chain_m70_dm20_705_step5_mini.root
p757
aV/store/cmst3/group/softJets/gkaratha/chain_m70_dm20_cfgRun24_133X_Run2024_test_10172024/Mini/chain_m70_dm20_706_step5_mini.root
p758
aV/store/cmst3/group/softJets/gkaratha/chain_m70_dm20_cfgRun24_133X_Run2024_test_10172024/Mini/chain_m70_dm20_707_step5_mini.root
p759
aV/store/cmst3/group/softJets/gkaratha/chain_m70_dm20_cfgRun24_133X_Run2024_test_10172024/Mini/chain_m70_dm20_708_step5_mini.root
p760
aV/store/cmst3/group/softJets/gkaratha/chain_m70_dm20_cfgRun24_133X_Run2024_test_10172024/Mini/chain_m70_dm20_709_step5_mini.root
p761
aV/store/cmst3/group/softJets/gkaratha/chain_m70_dm20_cfgRun24_133X_Run2024_test_10172024/Mini/chain_m70_dm20_70_step5_mini.root
p762
aV/store/cmst3/group/softJets/gkaratha/chain_m70_dm20_cfgRun24_133X_Run2024_test_10172024/Mini/chain_m70_dm20_710_step5_mini.root
p763
aV/store/cmst3/group/softJets/gkaratha/chain_m70_dm20_cfgRun24_133X_Run2024_test_10172024/Mini/chain_m70_dm20_711_step5_mini.root
p764
aV/store/cmst3/group/softJets/gkaratha/chain_m70_dm20_cfgRun24_133X_Run2024_test_10172024/Mini/chain_m70_dm20_712_step5_mini.root
p765
aV/store/cmst3/group/softJets/gkaratha/chain_m70_dm20_cfgRun24_133X_Run2024_test_10172024/Mini/chain_m70_dm20_713_step5_mini.root
p766
aV/store/cmst3/group/softJets/gkaratha/chain_m70_dm20_cfgRun24_133X_Run2024_test_10172024/Mini/chain_m70_dm20_714_step5_mini.root
p767
aV/store/cmst3/group/softJets/gkaratha/chain_m70_dm20_cfgRun24_133X_Run2024_test_10172024/Mini/chain_m70_dm20_715_step5_mini.root
p768
aV/store/cmst3/group/softJets/gkaratha/chain_m70_dm20_cfgRun24_133X_Run2024_test_10172024/Mini/chain_m70_dm20_716_step5_mini.root
p769
aV/store/cmst3/group/softJets/gkaratha/chain_m70_dm20_cfgRun24_133X_Run2024_test_10172024/Mini/chain_m70_dm20_717_step5_mini.root
p770
aV/store/cmst3/group/softJets/gkaratha/chain_m70_dm20_cfgRun24_133X_Run2024_test_10172024/Mini/chain_m70_dm20_718_step5_mini.root
p771
aV/store/cmst3/group/softJets/gkaratha/chain_m70_dm20_cfgRun24_133X_Run2024_test_10172024/Mini/chain_m70_dm20_719_step5_mini.root
p772
aV/store/cmst3/group/softJets/gkaratha/chain_m70_dm20_cfgRun24_133X_Run2024_test_10172024/Mini/chain_m70_dm20_71_step5_mini.root
p773
aV/store/cmst3/group/softJets/gkaratha/chain_m70_dm20_cfgRun24_133X_Run2024_test_10172024/Mini/chain_m70_dm20_720_step5_mini.root
p774
aV/store/cmst3/group/softJets/gkaratha/chain_m70_dm20_cfgRun24_133X_Run2024_test_10172024/Mini/chain_m70_dm20_721_step5_mini.root
p775
aV/store/cmst3/group/softJets/gkaratha/chain_m70_dm20_cfgRun24_133X_Run2024_test_10172024/Mini/chain_m70_dm20_722_step5_mini.root
p776
aV/store/cmst3/group/softJets/gkaratha/chain_m70_dm20_cfgRun24_133X_Run2024_test_10172024/Mini/chain_m70_dm20_723_step5_mini.root
p777
aV/store/cmst3/group/softJets/gkaratha/chain_m70_dm20_cfgRun24_133X_Run2024_test_10172024/Mini/chain_m70_dm20_724_step5_mini.root
p778
aV/store/cmst3/group/softJets/gkaratha/chain_m70_dm20_cfgRun24_133X_Run2024_test_10172024/Mini/chain_m70_dm20_725_step5_mini.root
p779
aV/store/cmst3/group/softJets/gkaratha/chain_m70_dm20_cfgRun24_133X_Run2024_test_10172024/Mini/chain_m70_dm20_726_step5_mini.root
p780
aV/store/cmst3/group/softJets/gkaratha/chain_m70_dm20_cfgRun24_133X_Run2024_test_10172024/Mini/chain_m70_dm20_727_step5_mini.root
p781
aV/store/cmst3/group/softJets/gkaratha/chain_m70_dm20_cfgRun24_133X_Run2024_test_10172024/Mini/chain_m70_dm20_728_step5_mini.root
p782
aV/store/cmst3/group/softJets/gkaratha/chain_m70_dm20_cfgRun24_133X_Run2024_test_10172024/Mini/chain_m70_dm20_729_step5_mini.root
p783
aV/store/cmst3/group/softJets/gkaratha/chain_m70_dm20_cfgRun24_133X_Run2024_test_10172024/Mini/chain_m70_dm20_72_step5_mini.root
p784
aV/store/cmst3/group/softJets/gkaratha/chain_m70_dm20_cfgRun24_133X_Run2024_test_10172024/Mini/chain_m70_dm20_730_step5_mini.root
p785
aV/store/cmst3/group/softJets/gkaratha/chain_m70_dm20_cfgRun24_133X_Run2024_test_10172024/Mini/chain_m70_dm20_731_step5_mini.root
p786
aV/store/cmst3/group/softJets/gkaratha/chain_m70_dm20_cfgRun24_133X_Run2024_test_10172024/Mini/chain_m70_dm20_732_step5_mini.root
p787
aV/store/cmst3/group/softJets/gkaratha/chain_m70_dm20_cfgRun24_133X_Run2024_test_10172024/Mini/chain_m70_dm20_733_step5_mini.root
p788
aV/store/cmst3/group/softJets/gkaratha/chain_m70_dm20_cfgRun24_133X_Run2024_test_10172024/Mini/chain_m70_dm20_734_step5_mini.root
p789
aV/store/cmst3/group/softJets/gkaratha/chain_m70_dm20_cfgRun24_133X_Run2024_test_10172024/Mini/chain_m70_dm20_735_step5_mini.root
p790
aV/store/cmst3/group/softJets/gkaratha/chain_m70_dm20_cfgRun24_133X_Run2024_test_10172024/Mini/chain_m70_dm20_736_step5_mini.root
p791
aV/store/cmst3/group/softJets/gkaratha/chain_m70_dm20_cfgRun24_133X_Run2024_test_10172024/Mini/chain_m70_dm20_737_step5_mini.root
p792
aV/store/cmst3/group/softJets/gkaratha/chain_m70_dm20_cfgRun24_133X_Run2024_test_10172024/Mini/chain_m70_dm20_738_step5_mini.root
p793
aV/store/cmst3/group/softJets/gkaratha/chain_m70_dm20_cfgRun24_133X_Run2024_test_10172024/Mini/chain_m70_dm20_739_step5_mini.root
p794
aV/store/cmst3/group/softJets/gkaratha/chain_m70_dm20_cfgRun24_133X_Run2024_test_10172024/Mini/chain_m70_dm20_73_step5_mini.root
p795
aV/store/cmst3/group/softJets/gkaratha/chain_m70_dm20_cfgRun24_133X_Run2024_test_10172024/Mini/chain_m70_dm20_740_step5_mini.root
p796
aV/store/cmst3/group/softJets/gkaratha/chain_m70_dm20_cfgRun24_133X_Run2024_test_10172024/Mini/chain_m70_dm20_741_step5_mini.root
p797
aV/store/cmst3/group/softJets/gkaratha/chain_m70_dm20_cfgRun24_133X_Run2024_test_10172024/Mini/chain_m70_dm20_742_step5_mini.root
p798
aV/store/cmst3/group/softJets/gkaratha/chain_m70_dm20_cfgRun24_133X_Run2024_test_10172024/Mini/chain_m70_dm20_743_step5_mini.root
p799
aV/store/cmst3/group/softJets/gkaratha/chain_m70_dm20_cfgRun24_133X_Run2024_test_10172024/Mini/chain_m70_dm20_744_step5_mini.root
p800
aV/store/cmst3/group/softJets/gkaratha/chain_m70_dm20_cfgRun24_133X_Run2024_test_10172024/Mini/chain_m70_dm20_745_step5_mini.root
p801
aV/store/cmst3/group/softJets/gkaratha/chain_m70_dm20_cfgRun24_133X_Run2024_test_10172024/Mini/chain_m70_dm20_746_step5_mini.root
p802
aV/store/cmst3/group/softJets/gkaratha/chain_m70_dm20_cfgRun24_133X_Run2024_test_10172024/Mini/chain_m70_dm20_747_step5_mini.root
p803
aV/store/cmst3/group/softJets/gkaratha/chain_m70_dm20_cfgRun24_133X_Run2024_test_10172024/Mini/chain_m70_dm20_748_step5_mini.root
p804
aV/store/cmst3/group/softJets/gkaratha/chain_m70_dm20_cfgRun24_133X_Run2024_test_10172024/Mini/chain_m70_dm20_749_step5_mini.root
p805
aV/store/cmst3/group/softJets/gkaratha/chain_m70_dm20_cfgRun24_133X_Run2024_test_10172024/Mini/chain_m70_dm20_74_step5_mini.root
p806
aV/store/cmst3/group/softJets/gkaratha/chain_m70_dm20_cfgRun24_133X_Run2024_test_10172024/Mini/chain_m70_dm20_750_step5_mini.root
p807
aV/store/cmst3/group/softJets/gkaratha/chain_m70_dm20_cfgRun24_133X_Run2024_test_10172024/Mini/chain_m70_dm20_751_step5_mini.root
p808
aV/store/cmst3/group/softJets/gkaratha/chain_m70_dm20_cfgRun24_133X_Run2024_test_10172024/Mini/chain_m70_dm20_752_step5_mini.root
p809
aV/store/cmst3/group/softJets/gkaratha/chain_m70_dm20_cfgRun24_133X_Run2024_test_10172024/Mini/chain_m70_dm20_753_step5_mini.root
p810
aV/store/cmst3/group/softJets/gkaratha/chain_m70_dm20_cfgRun24_133X_Run2024_test_10172024/Mini/chain_m70_dm20_754_step5_mini.root
p811
aV/store/cmst3/group/softJets/gkaratha/chain_m70_dm20_cfgRun24_133X_Run2024_test_10172024/Mini/chain_m70_dm20_755_step5_mini.root
p812
aV/store/cmst3/group/softJets/gkaratha/chain_m70_dm20_cfgRun24_133X_Run2024_test_10172024/Mini/chain_m70_dm20_756_step5_mini.root
p813
aV/store/cmst3/group/softJets/gkaratha/chain_m70_dm20_cfgRun24_133X_Run2024_test_10172024/Mini/chain_m70_dm20_757_step5_mini.root
p814
aV/store/cmst3/group/softJets/gkaratha/chain_m70_dm20_cfgRun24_133X_Run2024_test_10172024/Mini/chain_m70_dm20_758_step5_mini.root
p815
aV/store/cmst3/group/softJets/gkaratha/chain_m70_dm20_cfgRun24_133X_Run2024_test_10172024/Mini/chain_m70_dm20_759_step5_mini.root
p816
aV/store/cmst3/group/softJets/gkaratha/chain_m70_dm20_cfgRun24_133X_Run2024_test_10172024/Mini/chain_m70_dm20_75_step5_mini.root
p817
aV/store/cmst3/group/softJets/gkaratha/chain_m70_dm20_cfgRun24_133X_Run2024_test_10172024/Mini/chain_m70_dm20_760_step5_mini.root
p818
aV/store/cmst3/group/softJets/gkaratha/chain_m70_dm20_cfgRun24_133X_Run2024_test_10172024/Mini/chain_m70_dm20_761_step5_mini.root
p819
aV/store/cmst3/group/softJets/gkaratha/chain_m70_dm20_cfgRun24_133X_Run2024_test_10172024/Mini/chain_m70_dm20_762_step5_mini.root
p820
aV/store/cmst3/group/softJets/gkaratha/chain_m70_dm20_cfgRun24_133X_Run2024_test_10172024/Mini/chain_m70_dm20_763_step5_mini.root
p821
aV/store/cmst3/group/softJets/gkaratha/chain_m70_dm20_cfgRun24_133X_Run2024_test_10172024/Mini/chain_m70_dm20_764_step5_mini.root
p822
aV/store/cmst3/group/softJets/gkaratha/chain_m70_dm20_cfgRun24_133X_Run2024_test_10172024/Mini/chain_m70_dm20_765_step5_mini.root
p823
aV/store/cmst3/group/softJets/gkaratha/chain_m70_dm20_cfgRun24_133X_Run2024_test_10172024/Mini/chain_m70_dm20_766_step5_mini.root
p824
aV/store/cmst3/group/softJets/gkaratha/chain_m70_dm20_cfgRun24_133X_Run2024_test_10172024/Mini/chain_m70_dm20_767_step5_mini.root
p825
aV/store/cmst3/group/softJets/gkaratha/chain_m70_dm20_cfgRun24_133X_Run2024_test_10172024/Mini/chain_m70_dm20_768_step5_mini.root
p826
aV/store/cmst3/group/softJets/gkaratha/chain_m70_dm20_cfgRun24_133X_Run2024_test_10172024/Mini/chain_m70_dm20_769_step5_mini.root
p827
aV/store/cmst3/group/softJets/gkaratha/chain_m70_dm20_cfgRun24_133X_Run2024_test_10172024/Mini/chain_m70_dm20_76_step5_mini.root
p828
aV/store/cmst3/group/softJets/gkaratha/chain_m70_dm20_cfgRun24_133X_Run2024_test_10172024/Mini/chain_m70_dm20_770_step5_mini.root
p829
aV/store/cmst3/group/softJets/gkaratha/chain_m70_dm20_cfgRun24_133X_Run2024_test_10172024/Mini/chain_m70_dm20_771_step5_mini.root
p830
aV/store/cmst3/group/softJets/gkaratha/chain_m70_dm20_cfgRun24_133X_Run2024_test_10172024/Mini/chain_m70_dm20_772_step5_mini.root
p831
aV/store/cmst3/group/softJets/gkaratha/chain_m70_dm20_cfgRun24_133X_Run2024_test_10172024/Mini/chain_m70_dm20_773_step5_mini.root
p832
aV/store/cmst3/group/softJets/gkaratha/chain_m70_dm20_cfgRun24_133X_Run2024_test_10172024/Mini/chain_m70_dm20_774_step5_mini.root
p833
aV/store/cmst3/group/softJets/gkaratha/chain_m70_dm20_cfgRun24_133X_Run2024_test_10172024/Mini/chain_m70_dm20_775_step5_mini.root
p834
aV/store/cmst3/group/softJets/gkaratha/chain_m70_dm20_cfgRun24_133X_Run2024_test_10172024/Mini/chain_m70_dm20_776_step5_mini.root
p835
aV/store/cmst3/group/softJets/gkaratha/chain_m70_dm20_cfgRun24_133X_Run2024_test_10172024/Mini/chain_m70_dm20_777_step5_mini.root
p836
aV/store/cmst3/group/softJets/gkaratha/chain_m70_dm20_cfgRun24_133X_Run2024_test_10172024/Mini/chain_m70_dm20_778_step5_mini.root
p837
aV/store/cmst3/group/softJets/gkaratha/chain_m70_dm20_cfgRun24_133X_Run2024_test_10172024/Mini/chain_m70_dm20_779_step5_mini.root
p838
aV/store/cmst3/group/softJets/gkaratha/chain_m70_dm20_cfgRun24_133X_Run2024_test_10172024/Mini/chain_m70_dm20_77_step5_mini.root
p839
aV/store/cmst3/group/softJets/gkaratha/chain_m70_dm20_cfgRun24_133X_Run2024_test_10172024/Mini/chain_m70_dm20_780_step5_mini.root
p840
aV/store/cmst3/group/softJets/gkaratha/chain_m70_dm20_cfgRun24_133X_Run2024_test_10172024/Mini/chain_m70_dm20_781_step5_mini.root
p841
aV/store/cmst3/group/softJets/gkaratha/chain_m70_dm20_cfgRun24_133X_Run2024_test_10172024/Mini/chain_m70_dm20_782_step5_mini.root
p842
aV/store/cmst3/group/softJets/gkaratha/chain_m70_dm20_cfgRun24_133X_Run2024_test_10172024/Mini/chain_m70_dm20_783_step5_mini.root
p843
aV/store/cmst3/group/softJets/gkaratha/chain_m70_dm20_cfgRun24_133X_Run2024_test_10172024/Mini/chain_m70_dm20_784_step5_mini.root
p844
aV/store/cmst3/group/softJets/gkaratha/chain_m70_dm20_cfgRun24_133X_Run2024_test_10172024/Mini/chain_m70_dm20_785_step5_mini.root
p845
aV/store/cmst3/group/softJets/gkaratha/chain_m70_dm20_cfgRun24_133X_Run2024_test_10172024/Mini/chain_m70_dm20_786_step5_mini.root
p846
aV/store/cmst3/group/softJets/gkaratha/chain_m70_dm20_cfgRun24_133X_Run2024_test_10172024/Mini/chain_m70_dm20_787_step5_mini.root
p847
aV/store/cmst3/group/softJets/gkaratha/chain_m70_dm20_cfgRun24_133X_Run2024_test_10172024/Mini/chain_m70_dm20_788_step5_mini.root
p848
aV/store/cmst3/group/softJets/gkaratha/chain_m70_dm20_cfgRun24_133X_Run2024_test_10172024/Mini/chain_m70_dm20_789_step5_mini.root
p849
aV/store/cmst3/group/softJets/gkaratha/chain_m70_dm20_cfgRun24_133X_Run2024_test_10172024/Mini/chain_m70_dm20_78_step5_mini.root
p850
aV/store/cmst3/group/softJets/gkaratha/chain_m70_dm20_cfgRun24_133X_Run2024_test_10172024/Mini/chain_m70_dm20_790_step5_mini.root
p851
aV/store/cmst3/group/softJets/gkaratha/chain_m70_dm20_cfgRun24_133X_Run2024_test_10172024/Mini/chain_m70_dm20_791_step5_mini.root
p852
aV/store/cmst3/group/softJets/gkaratha/chain_m70_dm20_cfgRun24_133X_Run2024_test_10172024/Mini/chain_m70_dm20_792_step5_mini.root
p853
aV/store/cmst3/group/softJets/gkaratha/chain_m70_dm20_cfgRun24_133X_Run2024_test_10172024/Mini/chain_m70_dm20_793_step5_mini.root
p854
aV/store/cmst3/group/softJets/gkaratha/chain_m70_dm20_cfgRun24_133X_Run2024_test_10172024/Mini/chain_m70_dm20_794_step5_mini.root
p855
aV/store/cmst3/group/softJets/gkaratha/chain_m70_dm20_cfgRun24_133X_Run2024_test_10172024/Mini/chain_m70_dm20_795_step5_mini.root
p856
aV/store/cmst3/group/softJets/gkaratha/chain_m70_dm20_cfgRun24_133X_Run2024_test_10172024/Mini/chain_m70_dm20_796_step5_mini.root
p857
aV/store/cmst3/group/softJets/gkaratha/chain_m70_dm20_cfgRun24_133X_Run2024_test_10172024/Mini/chain_m70_dm20_797_step5_mini.root
p858
aV/store/cmst3/group/softJets/gkaratha/chain_m70_dm20_cfgRun24_133X_Run2024_test_10172024/Mini/chain_m70_dm20_798_step5_mini.root
p859
aV/store/cmst3/group/softJets/gkaratha/chain_m70_dm20_cfgRun24_133X_Run2024_test_10172024/Mini/chain_m70_dm20_799_step5_mini.root
p860
aV/store/cmst3/group/softJets/gkaratha/chain_m70_dm20_cfgRun24_133X_Run2024_test_10172024/Mini/chain_m70_dm20_79_step5_mini.root
p861
aV/store/cmst3/group/softJets/gkaratha/chain_m70_dm20_cfgRun24_133X_Run2024_test_10172024/Mini/chain_m70_dm20_7_step5_mini.root
p862
aV/store/cmst3/group/softJets/gkaratha/chain_m70_dm20_cfgRun24_133X_Run2024_test_10172024/Mini/chain_m70_dm20_800_step5_mini.root
p863
aV/store/cmst3/group/softJets/gkaratha/chain_m70_dm20_cfgRun24_133X_Run2024_test_10172024/Mini/chain_m70_dm20_801_step5_mini.root
p864
aV/store/cmst3/group/softJets/gkaratha/chain_m70_dm20_cfgRun24_133X_Run2024_test_10172024/Mini/chain_m70_dm20_802_step5_mini.root
p865
aV/store/cmst3/group/softJets/gkaratha/chain_m70_dm20_cfgRun24_133X_Run2024_test_10172024/Mini/chain_m70_dm20_803_step5_mini.root
p866
aV/store/cmst3/group/softJets/gkaratha/chain_m70_dm20_cfgRun24_133X_Run2024_test_10172024/Mini/chain_m70_dm20_804_step5_mini.root
p867
aV/store/cmst3/group/softJets/gkaratha/chain_m70_dm20_cfgRun24_133X_Run2024_test_10172024/Mini/chain_m70_dm20_805_step5_mini.root
p868
aV/store/cmst3/group/softJets/gkaratha/chain_m70_dm20_cfgRun24_133X_Run2024_test_10172024/Mini/chain_m70_dm20_806_step5_mini.root
p869
aV/store/cmst3/group/softJets/gkaratha/chain_m70_dm20_cfgRun24_133X_Run2024_test_10172024/Mini/chain_m70_dm20_807_step5_mini.root
p870
aV/store/cmst3/group/softJets/gkaratha/chain_m70_dm20_cfgRun24_133X_Run2024_test_10172024/Mini/chain_m70_dm20_808_step5_mini.root
p871
aV/store/cmst3/group/softJets/gkaratha/chain_m70_dm20_cfgRun24_133X_Run2024_test_10172024/Mini/chain_m70_dm20_809_step5_mini.root
p872
aV/store/cmst3/group/softJets/gkaratha/chain_m70_dm20_cfgRun24_133X_Run2024_test_10172024/Mini/chain_m70_dm20_80_step5_mini.root
p873
aV/store/cmst3/group/softJets/gkaratha/chain_m70_dm20_cfgRun24_133X_Run2024_test_10172024/Mini/chain_m70_dm20_810_step5_mini.root
p874
aV/store/cmst3/group/softJets/gkaratha/chain_m70_dm20_cfgRun24_133X_Run2024_test_10172024/Mini/chain_m70_dm20_811_step5_mini.root
p875
aV/store/cmst3/group/softJets/gkaratha/chain_m70_dm20_cfgRun24_133X_Run2024_test_10172024/Mini/chain_m70_dm20_812_step5_mini.root
p876
aV/store/cmst3/group/softJets/gkaratha/chain_m70_dm20_cfgRun24_133X_Run2024_test_10172024/Mini/chain_m70_dm20_813_step5_mini.root
p877
aV/store/cmst3/group/softJets/gkaratha/chain_m70_dm20_cfgRun24_133X_Run2024_test_10172024/Mini/chain_m70_dm20_814_step5_mini.root
p878
aV/store/cmst3/group/softJets/gkaratha/chain_m70_dm20_cfgRun24_133X_Run2024_test_10172024/Mini/chain_m70_dm20_815_step5_mini.root
p879
aV/store/cmst3/group/softJets/gkaratha/chain_m70_dm20_cfgRun24_133X_Run2024_test_10172024/Mini/chain_m70_dm20_816_step5_mini.root
p880
aV/store/cmst3/group/softJets/gkaratha/chain_m70_dm20_cfgRun24_133X_Run2024_test_10172024/Mini/chain_m70_dm20_817_step5_mini.root
p881
aV/store/cmst3/group/softJets/gkaratha/chain_m70_dm20_cfgRun24_133X_Run2024_test_10172024/Mini/chain_m70_dm20_818_step5_mini.root
p882
aV/store/cmst3/group/softJets/gkaratha/chain_m70_dm20_cfgRun24_133X_Run2024_test_10172024/Mini/chain_m70_dm20_819_step5_mini.root
p883
aV/store/cmst3/group/softJets/gkaratha/chain_m70_dm20_cfgRun24_133X_Run2024_test_10172024/Mini/chain_m70_dm20_81_step5_mini.root
p884
aV/store/cmst3/group/softJets/gkaratha/chain_m70_dm20_cfgRun24_133X_Run2024_test_10172024/Mini/chain_m70_dm20_820_step5_mini.root
p885
aV/store/cmst3/group/softJets/gkaratha/chain_m70_dm20_cfgRun24_133X_Run2024_test_10172024/Mini/chain_m70_dm20_821_step5_mini.root
p886
aV/store/cmst3/group/softJets/gkaratha/chain_m70_dm20_cfgRun24_133X_Run2024_test_10172024/Mini/chain_m70_dm20_822_step5_mini.root
p887
aV/store/cmst3/group/softJets/gkaratha/chain_m70_dm20_cfgRun24_133X_Run2024_test_10172024/Mini/chain_m70_dm20_823_step5_mini.root
p888
aV/store/cmst3/group/softJets/gkaratha/chain_m70_dm20_cfgRun24_133X_Run2024_test_10172024/Mini/chain_m70_dm20_824_step5_mini.root
p889
aV/store/cmst3/group/softJets/gkaratha/chain_m70_dm20_cfgRun24_133X_Run2024_test_10172024/Mini/chain_m70_dm20_825_step5_mini.root
p890
aV/store/cmst3/group/softJets/gkaratha/chain_m70_dm20_cfgRun24_133X_Run2024_test_10172024/Mini/chain_m70_dm20_826_step5_mini.root
p891
aV/store/cmst3/group/softJets/gkaratha/chain_m70_dm20_cfgRun24_133X_Run2024_test_10172024/Mini/chain_m70_dm20_827_step5_mini.root
p892
aV/store/cmst3/group/softJets/gkaratha/chain_m70_dm20_cfgRun24_133X_Run2024_test_10172024/Mini/chain_m70_dm20_828_step5_mini.root
p893
aV/store/cmst3/group/softJets/gkaratha/chain_m70_dm20_cfgRun24_133X_Run2024_test_10172024/Mini/chain_m70_dm20_829_step5_mini.root
p894
aV/store/cmst3/group/softJets/gkaratha/chain_m70_dm20_cfgRun24_133X_Run2024_test_10172024/Mini/chain_m70_dm20_82_step5_mini.root
p895
aV/store/cmst3/group/softJets/gkaratha/chain_m70_dm20_cfgRun24_133X_Run2024_test_10172024/Mini/chain_m70_dm20_830_step5_mini.root
p896
aV/store/cmst3/group/softJets/gkaratha/chain_m70_dm20_cfgRun24_133X_Run2024_test_10172024/Mini/chain_m70_dm20_831_step5_mini.root
p897
aV/store/cmst3/group/softJets/gkaratha/chain_m70_dm20_cfgRun24_133X_Run2024_test_10172024/Mini/chain_m70_dm20_832_step5_mini.root
p898
aV/store/cmst3/group/softJets/gkaratha/chain_m70_dm20_cfgRun24_133X_Run2024_test_10172024/Mini/chain_m70_dm20_833_step5_mini.root
p899
aV/store/cmst3/group/softJets/gkaratha/chain_m70_dm20_cfgRun24_133X_Run2024_test_10172024/Mini/chain_m70_dm20_834_step5_mini.root
p900
aV/store/cmst3/group/softJets/gkaratha/chain_m70_dm20_cfgRun24_133X_Run2024_test_10172024/Mini/chain_m70_dm20_835_step5_mini.root
p901
aV/store/cmst3/group/softJets/gkaratha/chain_m70_dm20_cfgRun24_133X_Run2024_test_10172024/Mini/chain_m70_dm20_836_step5_mini.root
p902
aV/store/cmst3/group/softJets/gkaratha/chain_m70_dm20_cfgRun24_133X_Run2024_test_10172024/Mini/chain_m70_dm20_837_step5_mini.root
p903
aV/store/cmst3/group/softJets/gkaratha/chain_m70_dm20_cfgRun24_133X_Run2024_test_10172024/Mini/chain_m70_dm20_838_step5_mini.root
p904
aV/store/cmst3/group/softJets/gkaratha/chain_m70_dm20_cfgRun24_133X_Run2024_test_10172024/Mini/chain_m70_dm20_839_step5_mini.root
p905
aV/store/cmst3/group/softJets/gkaratha/chain_m70_dm20_cfgRun24_133X_Run2024_test_10172024/Mini/chain_m70_dm20_83_step5_mini.root
p906
aV/store/cmst3/group/softJets/gkaratha/chain_m70_dm20_cfgRun24_133X_Run2024_test_10172024/Mini/chain_m70_dm20_840_step5_mini.root
p907
aV/store/cmst3/group/softJets/gkaratha/chain_m70_dm20_cfgRun24_133X_Run2024_test_10172024/Mini/chain_m70_dm20_841_step5_mini.root
p908
aV/store/cmst3/group/softJets/gkaratha/chain_m70_dm20_cfgRun24_133X_Run2024_test_10172024/Mini/chain_m70_dm20_842_step5_mini.root
p909
aV/store/cmst3/group/softJets/gkaratha/chain_m70_dm20_cfgRun24_133X_Run2024_test_10172024/Mini/chain_m70_dm20_843_step5_mini.root
p910
aV/store/cmst3/group/softJets/gkaratha/chain_m70_dm20_cfgRun24_133X_Run2024_test_10172024/Mini/chain_m70_dm20_844_step5_mini.root
p911
aV/store/cmst3/group/softJets/gkaratha/chain_m70_dm20_cfgRun24_133X_Run2024_test_10172024/Mini/chain_m70_dm20_845_step5_mini.root
p912
aV/store/cmst3/group/softJets/gkaratha/chain_m70_dm20_cfgRun24_133X_Run2024_test_10172024/Mini/chain_m70_dm20_846_step5_mini.root
p913
aV/store/cmst3/group/softJets/gkaratha/chain_m70_dm20_cfgRun24_133X_Run2024_test_10172024/Mini/chain_m70_dm20_847_step5_mini.root
p914
aV/store/cmst3/group/softJets/gkaratha/chain_m70_dm20_cfgRun24_133X_Run2024_test_10172024/Mini/chain_m70_dm20_848_step5_mini.root
p915
aV/store/cmst3/group/softJets/gkaratha/chain_m70_dm20_cfgRun24_133X_Run2024_test_10172024/Mini/chain_m70_dm20_849_step5_mini.root
p916
aV/store/cmst3/group/softJets/gkaratha/chain_m70_dm20_cfgRun24_133X_Run2024_test_10172024/Mini/chain_m70_dm20_84_step5_mini.root
p917
aV/store/cmst3/group/softJets/gkaratha/chain_m70_dm20_cfgRun24_133X_Run2024_test_10172024/Mini/chain_m70_dm20_850_step5_mini.root
p918
aV/store/cmst3/group/softJets/gkaratha/chain_m70_dm20_cfgRun24_133X_Run2024_test_10172024/Mini/chain_m70_dm20_851_step5_mini.root
p919
aV/store/cmst3/group/softJets/gkaratha/chain_m70_dm20_cfgRun24_133X_Run2024_test_10172024/Mini/chain_m70_dm20_852_step5_mini.root
p920
aV/store/cmst3/group/softJets/gkaratha/chain_m70_dm20_cfgRun24_133X_Run2024_test_10172024/Mini/chain_m70_dm20_853_step5_mini.root
p921
aV/store/cmst3/group/softJets/gkaratha/chain_m70_dm20_cfgRun24_133X_Run2024_test_10172024/Mini/chain_m70_dm20_854_step5_mini.root
p922
aV/store/cmst3/group/softJets/gkaratha/chain_m70_dm20_cfgRun24_133X_Run2024_test_10172024/Mini/chain_m70_dm20_855_step5_mini.root
p923
aV/store/cmst3/group/softJets/gkaratha/chain_m70_dm20_cfgRun24_133X_Run2024_test_10172024/Mini/chain_m70_dm20_856_step5_mini.root
p924
aV/store/cmst3/group/softJets/gkaratha/chain_m70_dm20_cfgRun24_133X_Run2024_test_10172024/Mini/chain_m70_dm20_857_step5_mini.root
p925
aV/store/cmst3/group/softJets/gkaratha/chain_m70_dm20_cfgRun24_133X_Run2024_test_10172024/Mini/chain_m70_dm20_858_step5_mini.root
p926
aV/store/cmst3/group/softJets/gkaratha/chain_m70_dm20_cfgRun24_133X_Run2024_test_10172024/Mini/chain_m70_dm20_859_step5_mini.root
p927
aV/store/cmst3/group/softJets/gkaratha/chain_m70_dm20_cfgRun24_133X_Run2024_test_10172024/Mini/chain_m70_dm20_85_step5_mini.root
p928
aV/store/cmst3/group/softJets/gkaratha/chain_m70_dm20_cfgRun24_133X_Run2024_test_10172024/Mini/chain_m70_dm20_860_step5_mini.root
p929
aV/store/cmst3/group/softJets/gkaratha/chain_m70_dm20_cfgRun24_133X_Run2024_test_10172024/Mini/chain_m70_dm20_861_step5_mini.root
p930
aV/store/cmst3/group/softJets/gkaratha/chain_m70_dm20_cfgRun24_133X_Run2024_test_10172024/Mini/chain_m70_dm20_862_step5_mini.root
p931
aV/store/cmst3/group/softJets/gkaratha/chain_m70_dm20_cfgRun24_133X_Run2024_test_10172024/Mini/chain_m70_dm20_863_step5_mini.root
p932
aV/store/cmst3/group/softJets/gkaratha/chain_m70_dm20_cfgRun24_133X_Run2024_test_10172024/Mini/chain_m70_dm20_864_step5_mini.root
p933
aV/store/cmst3/group/softJets/gkaratha/chain_m70_dm20_cfgRun24_133X_Run2024_test_10172024/Mini/chain_m70_dm20_865_step5_mini.root
p934
aV/store/cmst3/group/softJets/gkaratha/chain_m70_dm20_cfgRun24_133X_Run2024_test_10172024/Mini/chain_m70_dm20_866_step5_mini.root
p935
aV/store/cmst3/group/softJets/gkaratha/chain_m70_dm20_cfgRun24_133X_Run2024_test_10172024/Mini/chain_m70_dm20_867_step5_mini.root
p936
aV/store/cmst3/group/softJets/gkaratha/chain_m70_dm20_cfgRun24_133X_Run2024_test_10172024/Mini/chain_m70_dm20_868_step5_mini.root
p937
aV/store/cmst3/group/softJets/gkaratha/chain_m70_dm20_cfgRun24_133X_Run2024_test_10172024/Mini/chain_m70_dm20_869_step5_mini.root
p938
aV/store/cmst3/group/softJets/gkaratha/chain_m70_dm20_cfgRun24_133X_Run2024_test_10172024/Mini/chain_m70_dm20_86_step5_mini.root
p939
aV/store/cmst3/group/softJets/gkaratha/chain_m70_dm20_cfgRun24_133X_Run2024_test_10172024/Mini/chain_m70_dm20_870_step5_mini.root
p940
aV/store/cmst3/group/softJets/gkaratha/chain_m70_dm20_cfgRun24_133X_Run2024_test_10172024/Mini/chain_m70_dm20_871_step5_mini.root
p941
aV/store/cmst3/group/softJets/gkaratha/chain_m70_dm20_cfgRun24_133X_Run2024_test_10172024/Mini/chain_m70_dm20_872_step5_mini.root
p942
aV/store/cmst3/group/softJets/gkaratha/chain_m70_dm20_cfgRun24_133X_Run2024_test_10172024/Mini/chain_m70_dm20_873_step5_mini.root
p943
aV/store/cmst3/group/softJets/gkaratha/chain_m70_dm20_cfgRun24_133X_Run2024_test_10172024/Mini/chain_m70_dm20_874_step5_mini.root
p944
aV/store/cmst3/group/softJets/gkaratha/chain_m70_dm20_cfgRun24_133X_Run2024_test_10172024/Mini/chain_m70_dm20_875_step5_mini.root
p945
aV/store/cmst3/group/softJets/gkaratha/chain_m70_dm20_cfgRun24_133X_Run2024_test_10172024/Mini/chain_m70_dm20_876_step5_mini.root
p946
aV/store/cmst3/group/softJets/gkaratha/chain_m70_dm20_cfgRun24_133X_Run2024_test_10172024/Mini/chain_m70_dm20_877_step5_mini.root
p947
aV/store/cmst3/group/softJets/gkaratha/chain_m70_dm20_cfgRun24_133X_Run2024_test_10172024/Mini/chain_m70_dm20_878_step5_mini.root
p948
aV/store/cmst3/group/softJets/gkaratha/chain_m70_dm20_cfgRun24_133X_Run2024_test_10172024/Mini/chain_m70_dm20_879_step5_mini.root
p949
aV/store/cmst3/group/softJets/gkaratha/chain_m70_dm20_cfgRun24_133X_Run2024_test_10172024/Mini/chain_m70_dm20_87_step5_mini.root
p950
aV/store/cmst3/group/softJets/gkaratha/chain_m70_dm20_cfgRun24_133X_Run2024_test_10172024/Mini/chain_m70_dm20_880_step5_mini.root
p951
aV/store/cmst3/group/softJets/gkaratha/chain_m70_dm20_cfgRun24_133X_Run2024_test_10172024/Mini/chain_m70_dm20_881_step5_mini.root
p952
aV/store/cmst3/group/softJets/gkaratha/chain_m70_dm20_cfgRun24_133X_Run2024_test_10172024/Mini/chain_m70_dm20_882_step5_mini.root
p953
aV/store/cmst3/group/softJets/gkaratha/chain_m70_dm20_cfgRun24_133X_Run2024_test_10172024/Mini/chain_m70_dm20_883_step5_mini.root
p954
aV/store/cmst3/group/softJets/gkaratha/chain_m70_dm20_cfgRun24_133X_Run2024_test_10172024/Mini/chain_m70_dm20_884_step5_mini.root
p955
aV/store/cmst3/group/softJets/gkaratha/chain_m70_dm20_cfgRun24_133X_Run2024_test_10172024/Mini/chain_m70_dm20_885_step5_mini.root
p956
aV/store/cmst3/group/softJets/gkaratha/chain_m70_dm20_cfgRun24_133X_Run2024_test_10172024/Mini/chain_m70_dm20_886_step5_mini.root
p957
aV/store/cmst3/group/softJets/gkaratha/chain_m70_dm20_cfgRun24_133X_Run2024_test_10172024/Mini/chain_m70_dm20_887_step5_mini.root
p958
aV/store/cmst3/group/softJets/gkaratha/chain_m70_dm20_cfgRun24_133X_Run2024_test_10172024/Mini/chain_m70_dm20_888_step5_mini.root
p959
aV/store/cmst3/group/softJets/gkaratha/chain_m70_dm20_cfgRun24_133X_Run2024_test_10172024/Mini/chain_m70_dm20_889_step5_mini.root
p960
aV/store/cmst3/group/softJets/gkaratha/chain_m70_dm20_cfgRun24_133X_Run2024_test_10172024/Mini/chain_m70_dm20_88_step5_mini.root
p961
aV/store/cmst3/group/softJets/gkaratha/chain_m70_dm20_cfgRun24_133X_Run2024_test_10172024/Mini/chain_m70_dm20_890_step5_mini.root
p962
aV/store/cmst3/group/softJets/gkaratha/chain_m70_dm20_cfgRun24_133X_Run2024_test_10172024/Mini/chain_m70_dm20_891_step5_mini.root
p963
aV/store/cmst3/group/softJets/gkaratha/chain_m70_dm20_cfgRun24_133X_Run2024_test_10172024/Mini/chain_m70_dm20_892_step5_mini.root
p964
aV/store/cmst3/group/softJets/gkaratha/chain_m70_dm20_cfgRun24_133X_Run2024_test_10172024/Mini/chain_m70_dm20_893_step5_mini.root
p965
aV/store/cmst3/group/softJets/gkaratha/chain_m70_dm20_cfgRun24_133X_Run2024_test_10172024/Mini/chain_m70_dm20_894_step5_mini.root
p966
aV/store/cmst3/group/softJets/gkaratha/chain_m70_dm20_cfgRun24_133X_Run2024_test_10172024/Mini/chain_m70_dm20_895_step5_mini.root
p967
aV/store/cmst3/group/softJets/gkaratha/chain_m70_dm20_cfgRun24_133X_Run2024_test_10172024/Mini/chain_m70_dm20_896_step5_mini.root
p968
aV/store/cmst3/group/softJets/gkaratha/chain_m70_dm20_cfgRun24_133X_Run2024_test_10172024/Mini/chain_m70_dm20_897_step5_mini.root
p969
aV/store/cmst3/group/softJets/gkaratha/chain_m70_dm20_cfgRun24_133X_Run2024_test_10172024/Mini/chain_m70_dm20_898_step5_mini.root
p970
aV/store/cmst3/group/softJets/gkaratha/chain_m70_dm20_cfgRun24_133X_Run2024_test_10172024/Mini/chain_m70_dm20_899_step5_mini.root
p971
aV/store/cmst3/group/softJets/gkaratha/chain_m70_dm20_cfgRun24_133X_Run2024_test_10172024/Mini/chain_m70_dm20_89_step5_mini.root
p972
aV/store/cmst3/group/softJets/gkaratha/chain_m70_dm20_cfgRun24_133X_Run2024_test_10172024/Mini/chain_m70_dm20_8_step5_mini.root
p973
aV/store/cmst3/group/softJets/gkaratha/chain_m70_dm20_cfgRun24_133X_Run2024_test_10172024/Mini/chain_m70_dm20_900_step5_mini.root
p974
aV/store/cmst3/group/softJets/gkaratha/chain_m70_dm20_cfgRun24_133X_Run2024_test_10172024/Mini/chain_m70_dm20_901_step5_mini.root
p975
aV/store/cmst3/group/softJets/gkaratha/chain_m70_dm20_cfgRun24_133X_Run2024_test_10172024/Mini/chain_m70_dm20_902_step5_mini.root
p976
aV/store/cmst3/group/softJets/gkaratha/chain_m70_dm20_cfgRun24_133X_Run2024_test_10172024/Mini/chain_m70_dm20_903_step5_mini.root
p977
aV/store/cmst3/group/softJets/gkaratha/chain_m70_dm20_cfgRun24_133X_Run2024_test_10172024/Mini/chain_m70_dm20_904_step5_mini.root
p978
aV/store/cmst3/group/softJets/gkaratha/chain_m70_dm20_cfgRun24_133X_Run2024_test_10172024/Mini/chain_m70_dm20_905_step5_mini.root
p979
aV/store/cmst3/group/softJets/gkaratha/chain_m70_dm20_cfgRun24_133X_Run2024_test_10172024/Mini/chain_m70_dm20_906_step5_mini.root
p980
aV/store/cmst3/group/softJets/gkaratha/chain_m70_dm20_cfgRun24_133X_Run2024_test_10172024/Mini/chain_m70_dm20_907_step5_mini.root
p981
aV/store/cmst3/group/softJets/gkaratha/chain_m70_dm20_cfgRun24_133X_Run2024_test_10172024/Mini/chain_m70_dm20_908_step5_mini.root
p982
aV/store/cmst3/group/softJets/gkaratha/chain_m70_dm20_cfgRun24_133X_Run2024_test_10172024/Mini/chain_m70_dm20_909_step5_mini.root
p983
aV/store/cmst3/group/softJets/gkaratha/chain_m70_dm20_cfgRun24_133X_Run2024_test_10172024/Mini/chain_m70_dm20_90_step5_mini.root
p984
aV/store/cmst3/group/softJets/gkaratha/chain_m70_dm20_cfgRun24_133X_Run2024_test_10172024/Mini/chain_m70_dm20_910_step5_mini.root
p985
aV/store/cmst3/group/softJets/gkaratha/chain_m70_dm20_cfgRun24_133X_Run2024_test_10172024/Mini/chain_m70_dm20_911_step5_mini.root
p986
aV/store/cmst3/group/softJets/gkaratha/chain_m70_dm20_cfgRun24_133X_Run2024_test_10172024/Mini/chain_m70_dm20_912_step5_mini.root
p987
aV/store/cmst3/group/softJets/gkaratha/chain_m70_dm20_cfgRun24_133X_Run2024_test_10172024/Mini/chain_m70_dm20_913_step5_mini.root
p988
aV/store/cmst3/group/softJets/gkaratha/chain_m70_dm20_cfgRun24_133X_Run2024_test_10172024/Mini/chain_m70_dm20_914_step5_mini.root
p989
aV/store/cmst3/group/softJets/gkaratha/chain_m70_dm20_cfgRun24_133X_Run2024_test_10172024/Mini/chain_m70_dm20_915_step5_mini.root
p990
aV/store/cmst3/group/softJets/gkaratha/chain_m70_dm20_cfgRun24_133X_Run2024_test_10172024/Mini/chain_m70_dm20_916_step5_mini.root
p991
aV/store/cmst3/group/softJets/gkaratha/chain_m70_dm20_cfgRun24_133X_Run2024_test_10172024/Mini/chain_m70_dm20_917_step5_mini.root
p992
aV/store/cmst3/group/softJets/gkaratha/chain_m70_dm20_cfgRun24_133X_Run2024_test_10172024/Mini/chain_m70_dm20_918_step5_mini.root
p993
aV/store/cmst3/group/softJets/gkaratha/chain_m70_dm20_cfgRun24_133X_Run2024_test_10172024/Mini/chain_m70_dm20_919_step5_mini.root
p994
aV/store/cmst3/group/softJets/gkaratha/chain_m70_dm20_cfgRun24_133X_Run2024_test_10172024/Mini/chain_m70_dm20_91_step5_mini.root
p995
aV/store/cmst3/group/softJets/gkaratha/chain_m70_dm20_cfgRun24_133X_Run2024_test_10172024/Mini/chain_m70_dm20_920_step5_mini.root
p996
aV/store/cmst3/group/softJets/gkaratha/chain_m70_dm20_cfgRun24_133X_Run2024_test_10172024/Mini/chain_m70_dm20_921_step5_mini.root
p997
aV/store/cmst3/group/softJets/gkaratha/chain_m70_dm20_cfgRun24_133X_Run2024_test_10172024/Mini/chain_m70_dm20_922_step5_mini.root
p998
aV/store/cmst3/group/softJets/gkaratha/chain_m70_dm20_cfgRun24_133X_Run2024_test_10172024/Mini/chain_m70_dm20_923_step5_mini.root
p999
aV/store/cmst3/group/softJets/gkaratha/chain_m70_dm20_cfgRun24_133X_Run2024_test_10172024/Mini/chain_m70_dm20_924_step5_mini.root
p1000
aV/store/cmst3/group/softJets/gkaratha/chain_m70_dm20_cfgRun24_133X_Run2024_test_10172024/Mini/chain_m70_dm20_925_step5_mini.root
p1001
aV/store/cmst3/group/softJets/gkaratha/chain_m70_dm20_cfgRun24_133X_Run2024_test_10172024/Mini/chain_m70_dm20_926_step5_mini.root
p1002
aV/store/cmst3/group/softJets/gkaratha/chain_m70_dm20_cfgRun24_133X_Run2024_test_10172024/Mini/chain_m70_dm20_927_step5_mini.root
p1003
aV/store/cmst3/group/softJets/gkaratha/chain_m70_dm20_cfgRun24_133X_Run2024_test_10172024/Mini/chain_m70_dm20_928_step5_mini.root
p1004
aV/store/cmst3/group/softJets/gkaratha/chain_m70_dm20_cfgRun24_133X_Run2024_test_10172024/Mini/chain_m70_dm20_929_step5_mini.root
p1005
aV/store/cmst3/group/softJets/gkaratha/chain_m70_dm20_cfgRun24_133X_Run2024_test_10172024/Mini/chain_m70_dm20_92_step5_mini.root
p1006
aV/store/cmst3/group/softJets/gkaratha/chain_m70_dm20_cfgRun24_133X_Run2024_test_10172024/Mini/chain_m70_dm20_930_step5_mini.root
p1007
aV/store/cmst3/group/softJets/gkaratha/chain_m70_dm20_cfgRun24_133X_Run2024_test_10172024/Mini/chain_m70_dm20_931_step5_mini.root
p1008
aV/store/cmst3/group/softJets/gkaratha/chain_m70_dm20_cfgRun24_133X_Run2024_test_10172024/Mini/chain_m70_dm20_932_step5_mini.root
p1009
aV/store/cmst3/group/softJets/gkaratha/chain_m70_dm20_cfgRun24_133X_Run2024_test_10172024/Mini/chain_m70_dm20_933_step5_mini.root
p1010
aV/store/cmst3/group/softJets/gkaratha/chain_m70_dm20_cfgRun24_133X_Run2024_test_10172024/Mini/chain_m70_dm20_934_step5_mini.root
p1011
aV/store/cmst3/group/softJets/gkaratha/chain_m70_dm20_cfgRun24_133X_Run2024_test_10172024/Mini/chain_m70_dm20_935_step5_mini.root
p1012
aV/store/cmst3/group/softJets/gkaratha/chain_m70_dm20_cfgRun24_133X_Run2024_test_10172024/Mini/chain_m70_dm20_936_step5_mini.root
p1013
aV/store/cmst3/group/softJets/gkaratha/chain_m70_dm20_cfgRun24_133X_Run2024_test_10172024/Mini/chain_m70_dm20_937_step5_mini.root
p1014
aV/store/cmst3/group/softJets/gkaratha/chain_m70_dm20_cfgRun24_133X_Run2024_test_10172024/Mini/chain_m70_dm20_938_step5_mini.root
p1015
aV/store/cmst3/group/softJets/gkaratha/chain_m70_dm20_cfgRun24_133X_Run2024_test_10172024/Mini/chain_m70_dm20_939_step5_mini.root
p1016
aV/store/cmst3/group/softJets/gkaratha/chain_m70_dm20_cfgRun24_133X_Run2024_test_10172024/Mini/chain_m70_dm20_93_step5_mini.root
p1017
aV/store/cmst3/group/softJets/gkaratha/chain_m70_dm20_cfgRun24_133X_Run2024_test_10172024/Mini/chain_m70_dm20_940_step5_mini.root
p1018
aV/store/cmst3/group/softJets/gkaratha/chain_m70_dm20_cfgRun24_133X_Run2024_test_10172024/Mini/chain_m70_dm20_941_step5_mini.root
p1019
aV/store/cmst3/group/softJets/gkaratha/chain_m70_dm20_cfgRun24_133X_Run2024_test_10172024/Mini/chain_m70_dm20_942_step5_mini.root
p1020
aV/store/cmst3/group/softJets/gkaratha/chain_m70_dm20_cfgRun24_133X_Run2024_test_10172024/Mini/chain_m70_dm20_943_step5_mini.root
p1021
aV/store/cmst3/group/softJets/gkaratha/chain_m70_dm20_cfgRun24_133X_Run2024_test_10172024/Mini/chain_m70_dm20_944_step5_mini.root
p1022
aV/store/cmst3/group/softJets/gkaratha/chain_m70_dm20_cfgRun24_133X_Run2024_test_10172024/Mini/chain_m70_dm20_945_step5_mini.root
p1023
aV/store/cmst3/group/softJets/gkaratha/chain_m70_dm20_cfgRun24_133X_Run2024_test_10172024/Mini/chain_m70_dm20_946_step5_mini.root
p1024
aV/store/cmst3/group/softJets/gkaratha/chain_m70_dm20_cfgRun24_133X_Run2024_test_10172024/Mini/chain_m70_dm20_947_step5_mini.root
p1025
aV/store/cmst3/group/softJets/gkaratha/chain_m70_dm20_cfgRun24_133X_Run2024_test_10172024/Mini/chain_m70_dm20_948_step5_mini.root
p1026
aV/store/cmst3/group/softJets/gkaratha/chain_m70_dm20_cfgRun24_133X_Run2024_test_10172024/Mini/chain_m70_dm20_949_step5_mini.root
p1027
aV/store/cmst3/group/softJets/gkaratha/chain_m70_dm20_cfgRun24_133X_Run2024_test_10172024/Mini/chain_m70_dm20_94_step5_mini.root
p1028
aV/store/cmst3/group/softJets/gkaratha/chain_m70_dm20_cfgRun24_133X_Run2024_test_10172024/Mini/chain_m70_dm20_950_step5_mini.root
p1029
aV/store/cmst3/group/softJets/gkaratha/chain_m70_dm20_cfgRun24_133X_Run2024_test_10172024/Mini/chain_m70_dm20_951_step5_mini.root
p1030
aV/store/cmst3/group/softJets/gkaratha/chain_m70_dm20_cfgRun24_133X_Run2024_test_10172024/Mini/chain_m70_dm20_952_step5_mini.root
p1031
aV/store/cmst3/group/softJets/gkaratha/chain_m70_dm20_cfgRun24_133X_Run2024_test_10172024/Mini/chain_m70_dm20_953_step5_mini.root
p1032
aV/store/cmst3/group/softJets/gkaratha/chain_m70_dm20_cfgRun24_133X_Run2024_test_10172024/Mini/chain_m70_dm20_954_step5_mini.root
p1033
aV/store/cmst3/group/softJets/gkaratha/chain_m70_dm20_cfgRun24_133X_Run2024_test_10172024/Mini/chain_m70_dm20_955_step5_mini.root
p1034
aV/store/cmst3/group/softJets/gkaratha/chain_m70_dm20_cfgRun24_133X_Run2024_test_10172024/Mini/chain_m70_dm20_956_step5_mini.root
p1035
aV/store/cmst3/group/softJets/gkaratha/chain_m70_dm20_cfgRun24_133X_Run2024_test_10172024/Mini/chain_m70_dm20_957_step5_mini.root
p1036
aV/store/cmst3/group/softJets/gkaratha/chain_m70_dm20_cfgRun24_133X_Run2024_test_10172024/Mini/chain_m70_dm20_958_step5_mini.root
p1037
aV/store/cmst3/group/softJets/gkaratha/chain_m70_dm20_cfgRun24_133X_Run2024_test_10172024/Mini/chain_m70_dm20_959_step5_mini.root
p1038
aV/store/cmst3/group/softJets/gkaratha/chain_m70_dm20_cfgRun24_133X_Run2024_test_10172024/Mini/chain_m70_dm20_95_step5_mini.root
p1039
aV/store/cmst3/group/softJets/gkaratha/chain_m70_dm20_cfgRun24_133X_Run2024_test_10172024/Mini/chain_m70_dm20_960_step5_mini.root
p1040
aV/store/cmst3/group/softJets/gkaratha/chain_m70_dm20_cfgRun24_133X_Run2024_test_10172024/Mini/chain_m70_dm20_961_step5_mini.root
p1041
aV/store/cmst3/group/softJets/gkaratha/chain_m70_dm20_cfgRun24_133X_Run2024_test_10172024/Mini/chain_m70_dm20_962_step5_mini.root
p1042
aV/store/cmst3/group/softJets/gkaratha/chain_m70_dm20_cfgRun24_133X_Run2024_test_10172024/Mini/chain_m70_dm20_963_step5_mini.root
p1043
aV/store/cmst3/group/softJets/gkaratha/chain_m70_dm20_cfgRun24_133X_Run2024_test_10172024/Mini/chain_m70_dm20_964_step5_mini.root
p1044
aV/store/cmst3/group/softJets/gkaratha/chain_m70_dm20_cfgRun24_133X_Run2024_test_10172024/Mini/chain_m70_dm20_965_step5_mini.root
p1045
aV/store/cmst3/group/softJets/gkaratha/chain_m70_dm20_cfgRun24_133X_Run2024_test_10172024/Mini/chain_m70_dm20_966_step5_mini.root
p1046
aV/store/cmst3/group/softJets/gkaratha/chain_m70_dm20_cfgRun24_133X_Run2024_test_10172024/Mini/chain_m70_dm20_967_step5_mini.root
p1047
aV/store/cmst3/group/softJets/gkaratha/chain_m70_dm20_cfgRun24_133X_Run2024_test_10172024/Mini/chain_m70_dm20_968_step5_mini.root
p1048
aV/store/cmst3/group/softJets/gkaratha/chain_m70_dm20_cfgRun24_133X_Run2024_test_10172024/Mini/chain_m70_dm20_969_step5_mini.root
p1049
aV/store/cmst3/group/softJets/gkaratha/chain_m70_dm20_cfgRun24_133X_Run2024_test_10172024/Mini/chain_m70_dm20_96_step5_mini.root
p1050
aV/store/cmst3/group/softJets/gkaratha/chain_m70_dm20_cfgRun24_133X_Run2024_test_10172024/Mini/chain_m70_dm20_970_step5_mini.root
p1051
aV/store/cmst3/group/softJets/gkaratha/chain_m70_dm20_cfgRun24_133X_Run2024_test_10172024/Mini/chain_m70_dm20_971_step5_mini.root
p1052
aV/store/cmst3/group/softJets/gkaratha/chain_m70_dm20_cfgRun24_133X_Run2024_test_10172024/Mini/chain_m70_dm20_972_step5_mini.root
p1053
aV/store/cmst3/group/softJets/gkaratha/chain_m70_dm20_cfgRun24_133X_Run2024_test_10172024/Mini/chain_m70_dm20_973_step5_mini.root
p1054
aV/store/cmst3/group/softJets/gkaratha/chain_m70_dm20_cfgRun24_133X_Run2024_test_10172024/Mini/chain_m70_dm20_974_step5_mini.root
p1055
aV/store/cmst3/group/softJets/gkaratha/chain_m70_dm20_cfgRun24_133X_Run2024_test_10172024/Mini/chain_m70_dm20_975_step5_mini.root
p1056
aV/store/cmst3/group/softJets/gkaratha/chain_m70_dm20_cfgRun24_133X_Run2024_test_10172024/Mini/chain_m70_dm20_976_step5_mini.root
p1057
aV/store/cmst3/group/softJets/gkaratha/chain_m70_dm20_cfgRun24_133X_Run2024_test_10172024/Mini/chain_m70_dm20_977_step5_mini.root
p1058
aV/store/cmst3/group/softJets/gkaratha/chain_m70_dm20_cfgRun24_133X_Run2024_test_10172024/Mini/chain_m70_dm20_978_step5_mini.root
p1059
aV/store/cmst3/group/softJets/gkaratha/chain_m70_dm20_cfgRun24_133X_Run2024_test_10172024/Mini/chain_m70_dm20_979_step5_mini.root
p1060
aV/store/cmst3/group/softJets/gkaratha/chain_m70_dm20_cfgRun24_133X_Run2024_test_10172024/Mini/chain_m70_dm20_97_step5_mini.root
p1061
aV/store/cmst3/group/softJets/gkaratha/chain_m70_dm20_cfgRun24_133X_Run2024_test_10172024/Mini/chain_m70_dm20_980_step5_mini.root
p1062
aV/store/cmst3/group/softJets/gkaratha/chain_m70_dm20_cfgRun24_133X_Run2024_test_10172024/Mini/chain_m70_dm20_981_step5_mini.root
p1063
aV/store/cmst3/group/softJets/gkaratha/chain_m70_dm20_cfgRun24_133X_Run2024_test_10172024/Mini/chain_m70_dm20_982_step5_mini.root
p1064
aV/store/cmst3/group/softJets/gkaratha/chain_m70_dm20_cfgRun24_133X_Run2024_test_10172024/Mini/chain_m70_dm20_983_step5_mini.root
p1065
aV/store/cmst3/group/softJets/gkaratha/chain_m70_dm20_cfgRun24_133X_Run2024_test_10172024/Mini/chain_m70_dm20_984_step5_mini.root
p1066
aV/store/cmst3/group/softJets/gkaratha/chain_m70_dm20_cfgRun24_133X_Run2024_test_10172024/Mini/chain_m70_dm20_985_step5_mini.root
p1067
aV/store/cmst3/group/softJets/gkaratha/chain_m70_dm20_cfgRun24_133X_Run2024_test_10172024/Mini/chain_m70_dm20_986_step5_mini.root
p1068
aV/store/cmst3/group/softJets/gkaratha/chain_m70_dm20_cfgRun24_133X_Run2024_test_10172024/Mini/chain_m70_dm20_987_step5_mini.root
p1069
aV/store/cmst3/group/softJets/gkaratha/chain_m70_dm20_cfgRun24_133X_Run2024_test_10172024/Mini/chain_m70_dm20_988_step5_mini.root
p1070
aV/store/cmst3/group/softJets/gkaratha/chain_m70_dm20_cfgRun24_133X_Run2024_test_10172024/Mini/chain_m70_dm20_989_step5_mini.root
p1071
aV/store/cmst3/group/softJets/gkaratha/chain_m70_dm20_cfgRun24_133X_Run2024_test_10172024/Mini/chain_m70_dm20_98_step5_mini.root
p1072
aV/store/cmst3/group/softJets/gkaratha/chain_m70_dm20_cfgRun24_133X_Run2024_test_10172024/Mini/chain_m70_dm20_990_step5_mini.root
p1073
aV/store/cmst3/group/softJets/gkaratha/chain_m70_dm20_cfgRun24_133X_Run2024_test_10172024/Mini/chain_m70_dm20_991_step5_mini.root
p1074
aV/store/cmst3/group/softJets/gkaratha/chain_m70_dm20_cfgRun24_133X_Run2024_test_10172024/Mini/chain_m70_dm20_992_step5_mini.root
p1075
aV/store/cmst3/group/softJets/gkaratha/chain_m70_dm20_cfgRun24_133X_Run2024_test_10172024/Mini/chain_m70_dm20_993_step5_mini.root
p1076
aV/store/cmst3/group/softJets/gkaratha/chain_m70_dm20_cfgRun24_133X_Run2024_test_10172024/Mini/chain_m70_dm20_994_step5_mini.root
p1077
aV/store/cmst3/group/softJets/gkaratha/chain_m70_dm20_cfgRun24_133X_Run2024_test_10172024/Mini/chain_m70_dm20_995_step5_mini.root
p1078
aV/store/cmst3/group/softJets/gkaratha/chain_m70_dm20_cfgRun24_133X_Run2024_test_10172024/Mini/chain_m70_dm20_996_step5_mini.root
p1079
aV/store/cmst3/group/softJets/gkaratha/chain_m70_dm20_cfgRun24_133X_Run2024_test_10172024/Mini/chain_m70_dm20_997_step5_mini.root
p1080
aV/store/cmst3/group/softJets/gkaratha/chain_m70_dm20_cfgRun24_133X_Run2024_test_10172024/Mini/chain_m70_dm20_998_step5_mini.root
p1081
aV/store/cmst3/group/softJets/gkaratha/chain_m70_dm20_cfgRun24_133X_Run2024_test_10172024/Mini/chain_m70_dm20_999_step5_mini.root
p1082
aV/store/cmst3/group/softJets/gkaratha/chain_m70_dm20_cfgRun24_133X_Run2024_test_10172024/Mini/chain_m70_dm20_99_step5_mini.root
p1083
aV/store/cmst3/group/softJets/gkaratha/chain_m70_dm20_cfgRun24_133X_Run2024_test_10172024/Mini/chain_m70_dm20_9_step5_mini.root
p1084
asbsg24
g13
(g25
g15
Ntp1085
Rp1086
(dp1087
g29
g4
sg30
g24
sg31
g32
((lp1088
VstorageSite
p1089
atp1090
Rp1091
sg38
(dp1092
sg40
g32
((lp1093
tp1094
Rp1095
sg44
Nsg45
I00
sg1089
VT2_CH_CERN
p1096
sbsbs.